Turbo Assembler	 Version 4.1	    03/03/26 01:07:02	    Page 1
DCEMLID.ASM



      1				     ; DCEMLID.ASM - ODI MLID Driver for Serial/Parallel Direct	Cable Connection
      2				     ; Implements point-to-point IPX networking	over null-modem	or parallel cables
      3				     ; Supports	configurable MAC, baud rates, flow control, and	automatic UMB loading
      4				     ; 8086 CPU	compatible (runs on IBM	PC/XT and all compatibles)
      5
      6				     ; Build as	.COM file with:	TASM /m2 /jJUMPS DCEMLID.ASM &&	TLINK /t DCEMLID.OBJ
      7				     ; Home of sourcecode: https://github.com/smarthomerocks/dcemlid
      8				     ;
      9				     ; For specification of LSL, MLID, ODI and IPX,see:	dos_pstack.txt
     10
     11
     12
     13				     .8086			     ; 8086 CPU	instructions only
     14
     15	0000			     CODE    SEGMENT
     16					     ASSUME CS:CODE, DS:CODE, ES:CODE, SS:CODE
     17					     ORG 100h		     ; .COM file starts	at offset 100h
     18
     19				     ;=============================================================================
     20				     ; Constants and Equates
     21				     ;=============================================================================
     22
     23				     ; Driver Information
     24	      =0100		     DRIVER_VERSION  EQU 0100h		     ; Version 1.00
     25	      =0240		     MTU_SIZE	     EQU 576		     ; Maximum Transmission Unit (IPX max)
     26
     27				     ; Multiplex and LSL Constants
     28	      =C0A0		     MULTIPLEX_ID    EQU 0C0A0h		     ; Our multiplex ID
     29	      =C000		     LSL_CHECK	     EQU 0C000h		     ; Check if	LSL loaded
     30	      =C001		     LSL_REGISTER    EQU 0C001h		     ; Register	MLID with LSL
     31	      =C003		     LSL_GET_CONFIG  EQU 0C003h		     ; Get configuration from LSL
     32
     33				     ; Frame Protocol Constants
     34	      =00C0		     FRAME_START     EQU 0C0h		     ; SLIP-style frame	delimiter
     35	      =00DB		     FRAME_ESC	     EQU 0DBh		     ; Escape character
     36	      =00DC		     ESC_START	     EQU 0DCh		     ; Escaped START
     37	      =00DD		     ESC_ESC	     EQU 0DDh		     ; Escaped ESC
     38	      =00DE		     ESC_XON	     EQU 0DEh		     ; Escaped XON
     39	      =00DF		     ESC_XOFF	     EQU 0DFh		     ; Escaped XOFF
     40	      =0011		     XON_CHAR	     EQU 011h		     ; XON (Ctrl+Q)
     41	      =0013		     XOFF_CHAR	     EQU 013h		     ; XOFF (Ctrl+S)
     42	      =0006		     ACK_CHAR	     EQU 006h		     ; ACK
     43	      =0015		     NAK_CHAR	     EQU 015h		     ; NAK
     44
     45				     ; UART Register Offsets
     46	      =0000		     UART_RBR	     EQU 0		     ; Receiver	Buffer (Read)
     47	      =0000		     UART_THR	     EQU 0		     ; Transmitter Holding (Write)
     48	      =0001		     UART_IER	     EQU 1		     ; Interrupt Enable
     49	      =0002		     UART_IIR	     EQU 2		     ; Interrupt Identification	(Read)
     50	      =0002		     UART_FCR	     EQU 2		     ; FIFO Control (Write)
     51	      =0003		     UART_LCR	     EQU 3		     ; Line Control
     52	      =0004		     UART_MCR	     EQU 4		     ; Modem Control
     53	      =0005		     UART_LSR	     EQU 5		     ; Line Status
     54	      =0006		     UART_MSR	     EQU 6		     ; Modem Status
     55	      =0007		     UART_SCR	     EQU 7		     ; Scratch Register
     56
     57				     ; UART Configuration Values
Turbo Assembler	 Version 4.1	    03/03/26 01:07:02	    Page 2
DCEMLID.ASM



     58	      =0080		     LCR_DLAB	     EQU 80h		     ; Divisor Latch Access Bit
     59	      =0003		     LCR_8N1	     EQU 03h		     ; 8 data bits, no parity, 1 stop
     60	      =0001		     FCR_ENABLE	     EQU 01h		     ; Enable FIFO
     61	      =0006		     FCR_CLEAR	     EQU 06h		     ; Clear TX/RX FIFOs
     62	      =0080		     FCR_TRIGGER_8   EQU 80h		     ; 8-byte trigger level
     63	      =0001		     MCR_DTR	     EQU 01h		     ; Data Terminal Ready
     64	      =0002		     MCR_RTS	     EQU 02h		     ; Request To Send
     65	      =0008		     MCR_OUT2	     EQU 08h		     ; OUT2 (enable IRQ)
     66
     67				     ; Parallel	Port Register Offsets
     68	      =0000		     LPT_DATA	     EQU 0		     ; Data register
     69	      =0001		     LPT_STATUS	     EQU 1		     ; Status register
     70	      =0002		     LPT_CONTROL     EQU 2		     ; Control register
     71	      =0003		     LPT_EPP_ADDR    EQU 3		     ; EPP address port
     72	      =0004		     LPT_EPP_DATA    EQU 4		     ; EPP data	port
     73	      =0402		     LPT_ECR	     EQU 402h		     ; Extended	Control	Register
     74
     75				     ; Parallel	Port Control Bits
     76	      =0001		     LPT_CTRL_STROBE EQU 01h		     ; Strobe
     77	      =0002		     LPT_CTRL_AUTOFD EQU 02h		     ; Auto Line Feed
     78	      =0004		     LPT_CTRL_INIT   EQU 04h		     ; Initialize
     79	      =0008		     LPT_CTRL_SELECT EQU 08h		     ; Select In
     80	      =0010		     LPT_CTRL_IRQ    EQU 10h		     ; Enable IRQ
     81	      =0020		     LPT_CTRL_BIDIR  EQU 20h		     ; Bidirectional enable (PS/2)
     82
     83				     ; Buffer Sizes
     84	      =1000		     RX_BUFFER_SIZE  EQU 4096		     ; 4KB receive circular buffer
     85	      =0800		     TX_BUFFER_SIZE  EQU 2048		     ; 2KB transmit queue
     86
     87				     ; Timing Constants
     88	      =00C8		     RETRY_TIMEOUT   EQU 200		     ; 200ms timeout
     89	      =0002		     MAX_RETRIES     EQU 2		     ; Maximum retry attempts
     90
     91				     ; MLID Control Function Codes
     92	      =0001		     MLID_RESET	     EQU 01h
     93	      =0002		     MLID_SHUTDOWN   EQU 02h
     94	      =0005		     MLID_GET_STATS  EQU 05h
     95	      =0006		     MLID_SEND_PKT   EQU 06h
     96	      =0007		     MLID_REG_RX     EQU 07h
     97
     98				     ; ECB (Event Control Block) Structure Offsets
     99	      =0000		     ECB_Link	     EQU 0		     ; DD - Link to next ECB
    100	      =0004		     ECB_ESR	     EQU 4		     ; DD - Event Service Routine
    101	      =0008		     ECB_InUse	     EQU 8		     ; DB - In use flag
    102	      =0009		     ECB_CompCode    EQU 9		     ; DB - Completion code
    103	      =000A		     ECB_Socket	     EQU 10		     ; DW - Socket number
    104	      =000C		     ECB_IPXWork     EQU 12		     ; 4 bytes - IPX workspace
    105	      =0010		     ECB_DriverWork  EQU 16		     ; 12 bytes	- Driver workspace
    106	      =001C		     ECB_ImmAddr     EQU 28		     ; 6 bytes - Immediate address
    107	      =0022		     ECB_FragCount   EQU 34		     ; DW - Fragment count
    108	      =0024		     ECB_FragList    EQU 36		     ; Fragment	descriptors start
    109
    110				     ; Fragment	Descriptor Offsets (each 6 bytes)
    111	      =0000		     FRAG_Addr	     EQU 0		     ; DD - Fragment address
    112	      =0004		     FRAG_Size	     EQU 4		     ; DW - Fragment size
    113
    114				     ; ECB Completion Codes
Turbo Assembler	 Version 4.1	    03/03/26 01:07:02	    Page 3
DCEMLID.ASM



    115	      =0000		     ECB_SUCCESS     EQU 00h		     ; Successful
    116	      =00FC		     ECB_CANCELLED   EQU 0FCh		     ; Cancelled by application
    117	      =00FD		     ECB_HARDWARE    EQU 0FDh		     ; Hardware	error
    118	      =00FE		     ECB_BAD_PKT     EQU 0FEh		     ; Malformed packet
    119	      =00FF		     ECB_OVERFLOW    EQU 0FFh		     ; Packet overflow
    120
    121				     ;=============================================================================
    122				     ; Entry Point - Jump over data section
    123				     ;=============================================================================
    124
    125	0100			     Start:
    126	0100  E9 25CC			     jmp     Main	     ; Skip over data section to main code
    127
    128				     ;=============================================================================
    129				     ; Data Section (embedded in code segment for .COM file)
    130				     ;=============================================================================
    131
    132				     ; Driver Information
    133	0103  44 43 45 4D 4C 49	44+  DRIVER_NAME     DB	'DCEMLID',0
    134	      00
    135
    136				     ; Configuration Parameters
    137	*10B			     Config STRUC
    138	*000  01*(00)			 Mode	     DB	0		     ; 0=Serial, 1=PAR4, 2=PAR8
    139	*001  01*(03F8)			 Port	     DW	3F8h		     ; I/O port	base address
    140	*003  01*(0001C200)		 BaudRate    DD	115200		     ; Baud rate (serial only)
    141	*007  01*(00)			 FlowCtrl    DB	0		     ; 0=RTS/CTS, 1=XON/XOFF
    142	*008  01*(06*(00))		 MacAddr     DB	6 DUP(0)	     ; MAC address
    143	*00E  01*(00)			 IRQNum	     DB	0		     ; IRQ number
    144	*00F  01*(00)			 UARTType    DB	0		     ; 0=8250, 1=16550
    145	*010  01*(00)			 ParMode     DB	0		     ; For PAR8: 0=EPP,	1=PS/2
    146	*011  01*(0000)			 BoardNum    DW	0		     ; Board number for	multiple instances
    147	*013			     Config ENDS
    148
    149	010B  00 03F8 0001C200 00 +  CfgData Config <>
    150	      06*(00) 00 00 00	  +
    151	      0000
    152
    153				     ; Statistics Structure
    154	*11E			     Stats STRUC
    155	*000  01*(00000000)		 TxPackets   DD	0
    156	*004  01*(00000000)		 TxBytes     DD	0
    157	*008  01*(00000000)		 RxPackets   DD	0
    158	*00C  01*(00000000)		 RxBytes     DD	0
    159	*010  01*(00000000)		 CRCErrors   DD	0
    160	*014  01*(00000000)		 Timeouts    DD	0
    161	*018  01*(00000000)		 Retries     DD	0
    162	*01C  01*(00000000)		 Overruns    DD	0
    163	*020			     Stats ENDS
    164
    165	011E  00000000 00000000	  +  Statistics	Stats <>
    166	      00000000 00000000	  +
    167	      00000000 00000000	  +
    168	      00000000 00000000
    169
    170				     ; Driver State
    171	013E  00		     DriverLoaded    DB	0		     ; Flag: driver loaded
Turbo Assembler	 Version 4.1	    03/03/26 01:07:02	    Page 4
DCEMLID.ASM



    172	013F  00		     DriverActive    DB	0		     ; Flag: driver active (not	idle)
    173	0140  0000		     RxHandlerOff    DW	0		     ; LSL receive handler offset
    174	0142  0000		     RxHandlerSeg    DW	0		     ; LSL receive handler segment
    175
    176				     ; LSL Entry Point (read from LSL Support Table)
    177	0144  0000		     LSLEntryOff     DW	0
    178	0146  0000		     LSLEntrySeg     DW	0
    179	0148  0000		     LSLVersion	     DW	0		     ; LSL version (AL=major, AH=minor)
    180	014A  0000		     LSLBoardNum     DW	0		     ; Board number assigned by	LSL
    181
    182				     ; Interrupt Vectors (Off then Seg for correct FAR JMP dword ptr)
    183	014C  0000		     OldInt2F_Off    DW	0
    184	014E  0000		     OldInt2F_Seg    DW	0
    185	0150  0000		     OldHwInt_Off    DW	0
    186	0152  0000		     OldHwInt_Seg    DW	0
    187
    188				     ; Transmit	State
    189	0154  00		     TxSeqNum	     DB	0		     ; Current TX sequence number
    190	0155  00		     TxPending	     DB	0		     ; TX in progress flag
    191	0156  00		     TxRetryCount    DB	0		     ; Current retry count
    192	0157  0000		     TxTimeout	     DW	0		     ; Timeout counter
    193
    194				     ; ECB Queue Management
    195	0159  00000000		     TxQueueHead     DD	0		     ; Head of transmit	ECB queue
    196	015D  00000000		     TxQueueTail     DD	0		     ; Tail of transmit	ECB queue
    197	0161  0000		     TxQueueCount    DW	0		     ; Number of ECBs in queue
    198	0163  00000000		     TxCurrentECB    DD	0		     ; Currently transmitting ECB
    199	0167  0000		     TxCurrentSeg    DW	0		     ; Segment of current ECB
    200	0169  0000		     TxCurrentOff    DW	0		     ; Offset of current ECB
    201	016B  0000		     TxFragIndex     DW	0		     ; Current fragment	index
    202	016D  0000		     TxFragOffset    DW	0		     ; Offset within current fragment
    203	016F  0000		     TxTotalSent     DW	0		     ; Total bytes sent	in current packet
    204	0171  0000		     TxPacketSize    DW	0		     ; Total packet size
    205	0173  FFFF		     TxCRC	     DW	0FFFFh		     ; Transmit	CRC
    206
    207				     ; Receive State
    208	0175  00		     RxSeqNum	     DB	0		     ; Expected	RX sequence number
    209	0176  00		     RxState	     DB	0		     ; Frame parser FSM	state
    210	0177  00		     RxEscaped	     DB	0		     ; Escape sequence flag
    211	0178  0000		     RxBufIdx	     DW	0		     ; Current buffer index
    212	017A  0000		     RxFrameLen	     DW	0		     ; Current frame length
    213	017C  FFFF		     RxCRC	     DW	0FFFFh		     ; Running CRC calculation
    214
    215				     ; Buffers
    216	017E  1000*(00)		     RxBuffer	     DB	RX_BUFFER_SIZE DUP(0)
    217	117E  0800*(00)		     TxBuffer	     DB	TX_BUFFER_SIZE DUP(0)
    218	197E  0260*(00)		     FrameBuffer     DB	MTU_SIZE+32 DUP(0)   ; Temp frame assembly buffer (extra for headers)
    219	1BDE  0260*(00)		     TxFrameBuffer   DB	MTU_SIZE+32 DUP(0)   ; Transmit	frame assembly buffer
    220
    221				     ; LSL Configuration Keywords
    222	1E3E  4D 4F 44 45 00	     CfgKeyMode	     DB	'MODE',0
    223	1E43  50 4F 52 54 00	     CfgKeyPort	     DB	'PORT',0
    224	1E48  49 4E 54 00	     CfgKeyInt	     DB	'INT',0
    225	1E4C  42 41 55 44 00	     CfgKeyBaud	     DB	'BAUD',0
    226	1E51  46 4C 4F 57 00	     CfgKeyFlow	     DB	'FLOW',0
    227	1E56  4E 4F 44 45 00	     CfgKeyNode	     DB	'NODE',0
    228	1E5B  53 45 52 49 41 4C	00   CfgValSerial    DB	'SERIAL',0
Turbo Assembler	 Version 4.1	    03/03/26 01:07:02	    Page 5
DCEMLID.ASM



    229	1E62  50 41 52 34 00	     CfgValPar4	     DB	'PAR4',0
    230	1E67  50 41 52 38 00	     CfgValPar8	     DB	'PAR8',0
    231	1E6C  52 54 53 00	     CfgValRTS	     DB	'RTS',0
    232	1E70  58 4F 4E 00	     CfgValXON	     DB	'XON',0
    233
    234				     ; Messages
    235	1E74  44 43 45 4D 4C 49	44+  MsgBanner	     DB	'DCEMLID v1.00 - ODI MLID Driver for Direct Cable Connection',13,10,'$'
    236	      20 76 31 2E 30 30	20+
    237	      2D 20 4F 44 49 20	4D+
    238	      4C 49 44 20 44 72	69+
    239	      76 65 72 20 66 6F	72+
    240	      20 44 69 72 65 63	74+
    241	      20 43 61 62 6C 65	20+
    242	      43 6F 6E 6E 65 63	74+
    243	      69 6F 6E 0D 0A 24
    244	1EB2  44 72 69 76 65 72	20+  MsgLoaded	     DB	'Driver	loaded:	$'
    245	      6C 6F 61 64 65 64	3A+
    246	      20 24
    247	1EC2  53 45 52 49 41 4C	20+  MsgSerial	     DB	'SERIAL	$'
    248	      24
    249	1ECA  50 41 52 34 20 24	     MsgPar4	     DB	'PAR4 $'
    250	1ED0  50 41 52 38 2D 45	50+  MsgPar8EPP	     DB	'PAR8-EPP $'
    251	      50 20 24
    252	1EDA  50 41 52 38 2D 50	53+  MsgPar8PS2	     DB	'PAR8-PS2 $'
    253	      32 20 24
    254	1EE4  50 6F 72 74 3D 24	     MsgPort	     DB	'Port=$'
    255	1EEA  20 49 52 51 3D 24	     MsgIRQ	     DB	' IRQ=$'
    256	1EF0  20 4D 41 43 3D 24	     MsgMAC	     DB	' MAC=$'
    257	1EF6  20 42 61 75 64 3D	24   MsgBaud	     DB	' Baud=$'
    258	1EFD  20 28 38 32 35 30	29+  Msg8250	     DB	' (8250)$'
    259	      24
    260	1F05  20 28 31 36 35 35	30+  Msg16550	     DB	' (16550)$'
    261	      29 24
    262	1F0E  20 46 6C 6F 77 3D	52+  MsgFlowRTS	     DB	' Flow=RTS/CTS$'
    263	      54 53 2F 43 54 53	24
    264	1F1C  20 46 6C 6F 77 3D	58+  MsgFlowXON	     DB	' Flow=XON/XOFF$'
    265	      4F 4E 2F 58 4F 46	46+
    266	      24
    267	1F2B  20 5B 55 4D 42 5D	24   MsgUMB	     DB	' [UMB]$'
    268	1F32  20 5B 43 6F 6E 76	65+  MsgConv	     DB	' [Conventional]$'
    269	      6E 74 69 6F 6E 61	6C+
    270	      5D 24
    271	1F42  0D 0A 24		     MsgCRLF	     DB	13,10,'$'
    272
    273	1F45  57 41 52 4E 49 4E	47+  MsgWarn8250     DB	'WARNING: 8250 UART at high baud - packet loss may occur.',13,10
    274	      3A 20 38 32 35 30	20+
    275	      55 41 52 54 20 61	74+
    276	      20 68 69 67 68 20	62+
    277	      61 75 64 20 2D 20	70+
    278	      61 63 6B 65 74 20	6C+
    279	      6F 73 73 20 6D 61	79+
    280	      20 6F 63 63 75 72	2E+
    281	      0D 0A
    282	1F7F  20 20 20 20 20 20	20+		     DB	'	  Consider using 38400 or lower.',13,10,'$'
    283	      20 20 43 6F 6E 73	69+
    284	      64 65 72 20 75 73	69+
    285	      6E 67 20 33 38 34	30+
Turbo Assembler	 Version 4.1	    03/03/26 01:07:02	    Page 6
DCEMLID.ASM



    286	      30 20 6F 72 20 6C	6F+
    287	      77 65 72 2E 0D 0A	24
    288
    289	1FA9  45 52 52 4F 52 3A	20+  MsgErrLSL	     DB	'ERROR:	LSL not	loaded.	Load LSL.COM first.',13,10,'$'
    290	      4C 53 4C 20 6E 6F	74+
    291	      20 6C 6F 61 64 65	64+
    292	      2E 20 4C 6F 61 64	20+
    293	      4C 53 4C 2E 43 4F	4D+
    294	      20 66 69 72 73 74	2E+
    295	      0D 0A 24
    296	1FD6  45 52 52 4F 52 3A	20+  MsgErrConfig    DB	'ERROR:	No configuration in NET.CFG. Add Link Driver DCEMLID section.',13,  +
    297	      4E 6F 20 63 6F 6E	66+  10,'$'
    298	      69 67 75 72 61 74	69+
    299	      6F 6E 20 69 6E 20	4E+
    300	      45 54 2E 43 46 47	2E+
    301	      20 41 64 64 20 4C	69+
    302	      6E 6B 20 44 72 69	76+
    303	      65 72 20 44 43 45	4D+
    304	      4C 49 44 20 73 65	63+
    305	      74 69 6F 6E 2E 0D	0A+
    306	      24
    307	201D  45 52 52 4F 52 3A	20+  MsgErrLoaded    DB	'ERROR:	Driver already loaded.',13,10,'$'
    308	      44 72 69 76 65 72	20+
    309	      61 6C 72 65 61 64	79+
    310	      20 6C 6F 61 64 65	64+
    311	      2E 0D 0A 24
    312	203D  45 52 52 4F 52 3A	20+  MsgErrIRQ	     DB	'ERROR:	IRQ conflict detected.',13,10,'$'
    313	      49 52 51 20 63 6F	6E+
    314	      66 6C 69 63 74 20	64+
    315	      65 74 65 63 74 65	64+
    316	      2E 0D 0A 24
    317	205D  45 52 52 4F 52 3A	20+  MsgErrPort	     DB	'ERROR:	Hardware not detected at specified port.',13,10,'$'
    318	      48 61 72 64 77 61	72+
    319	      65 20 6E 6F 74 20	64+
    320	      65 74 65 63 74 65	64+
    321	      20 61 74 20 73 70	65+
    322	      63 69 66 69 65 64	20+
    323	      70 6F 72 74 2E 0D	0A+
    324	      24
    325	208F  45 52 52 4F 52 3A	20+  MsgErrDOS	     DB	'ERROR:	Requires DOS 5.0 or higher for UMB support.',13,10,'$'
    326	      52 65 71 75 69 72	65+
    327	      73 20 44 4F 53 20	35+
    328	      2E 30 20 6F 72 20	68+
    329	      69 67 68 65 72 20	66+
    330	      6F 72 20 55 4D 42	20+
    331	      73 75 70 70 6F 72	74+
    332	      2E 0D 0A 24
    333	20C4  45 52 52 4F 52 3A	20+  MsgErrLSLVer    DB	'ERROR:	Incompatible LSL version. Requires LSL 2.x, found: $'
    334	      49 6E 63 6F 6D 70	61+
    335	      74 69 62 6C 65 20	4C+
    336	      53 4C 20 76 65 72	73+
    337	      69 6F 6E 2E 20 52	65+
    338	      71 75 69 72 65 73	20+
    339	      4C 53 4C 20 32 2E	78+
    340	      2C 20 66 6F 75 6E	64+
    341	      3A 20 24
    342
Turbo Assembler	 Version 4.1	    03/03/26 01:07:02	    Page 7
DCEMLID.ASM



    343	20FF  44 65 74 65 63 74	69+  MsgDbgPort	     DB	'Detecting hardware at port $'
    344	      6E 67 20 68 61 72	64+
    345	      77 61 72 65 20 61	74+
    346	      20 70 6F 72 74 20	24
    347	211B  20 6D 6F 64 65 3D	24   MsgDbgMode	     DB	' mode=$'
    348	2122  53 45 52 49 41 4C	24   MsgDbgSerial    DB	'SERIAL$'
    349	2129  50 41 52 34 24	     MsgDbgPar4	     DB	'PAR4$'
    350	212E  50 41 52 38 24	     MsgDbgPar8	     DB	'PAR8$'
    351
    352	2133  4C 43 52 20 70 6F	72+  MsgDbgLCR	     DB	'LCR port=$'
    353	      74 3D 24
    354	213D  20 77 72 69 74 65	3D+  MsgDbgWrite     DB	' write=$'
    355	      24
    356	2145  20 72 65 61 64 3D	24   MsgDbgRead	     DB	' read=$'
    357	214C  20 4F 4B 0D 0A 24	     MsgDbgOK	     DB	' OK',13,10,'$'
    358	2152  20 46 41 49 4C 0D	0A+  MsgDbgFAIL	     DB	' FAIL',13,10,'$'
    359	      24
    360	215A  54 65 73 74 31 3A	24   MsgDbgTest1     DB	'Test1:$'
    361	2161  54 65 73 74 32 3A	24   MsgDbgTest2     DB	'Test2:$'
    362	2168  48 61 72 64 77 61	72+  MsgDbgHwInit    DB	'Hardware init OK',13,10,'$'
    363	      65 20 69 6E 69 74	20+
    364	      4F 4B 0D 0A 24
    365	217B  48 6F 6F 6B 69 6E	67+  MsgDbgHookIRQ   DB	'Hooking IRQ...$'
    366	      20 49 52 51 2E 2E	2E+
    367	      24
    368	218A  52 65 67 69 73 74	65+  MsgDbgRegLSL    DB	'Registering with LSL...$'
    369	      72 69 6E 67 20 77	69+
    370	      74 68 20 4C 53 4C	2E+
    371	      2E 2E 24
    372	21A2  20 66 61 69 6C 65	64+  MsgDbgLSLFail   DB	' failed (AX=$'
    373	      20 28 41 58 3D 24
    374	21AF  29 0D 0A 24	     MsgDbgLSLRet    DB	')',13,10,'$'
    375	21B3  4C 53 4C 20 76 65	72+  MsgDbgLSLVer    DB	'LSL version=$'
    376	      73 69 6F 6E 3D 24
    377	21C0  43 61 6C 6C 69 6E	67+  MsgDbgCallLSL   DB	'Calling LSL RegisterMLID...',13,10,'$'
    378	      20 4C 53 4C 20 52	65+
    379	      67 69 73 74 65 72	4D+
    380	      4C 49 44 2E 2E 2E	0D+
    381	      0A 24
    382
    383	21DE  45 52 52 4F 52 3A	20+  MsgErrLSLReg    DB	'ERROR:	LSL registration failed.',13,10,'$'
    384	      4C 53 4C 20 72 65	67+
    385	      69 73 74 72 61 74	69+
    386	      6F 6E 20 66 61 69	6C+
    387	      65 64 2E 0D 0A 24
    388
    389	2200  44 72 69 76 65 72	20+  MsgUnloaded     DB	'Driver	unloaded successfully.',13,10,'$'
    390	      75 6E 6C 6F 61 64	65+
    391	      64 20 73 75 63 63	65+
    392	      73 73 66 75 6C 6C	79+
    393	      2E 0D 0A 24
    394	2220  45 52 52 4F 52 3A	20+  MsgErrNotLoaded DB	'ERROR:	Driver not loaded.',13,10,'$'
    395	      44 72 69 76 65 72	20+
    396	      6E 6F 74 20 6C 6F	61+
    397	      64 65 64 2E 0D 0A	24
    398	223C  45 52 52 4F 52 3A	20+  MsgErrBusy	     DB	'ERROR:	Driver busy, cannot unload.',13,10,'$'
    399	      44 72 69 76 65 72	20+
Turbo Assembler	 Version 4.1	    03/03/26 01:07:02	    Page 8
DCEMLID.ASM



    400	      62 75 73 79 2C 20	63+
    401	      61 6E 6E 6F 74 20	75+
    402	      6E 6C 6F 61 64 2E	0D+
    403	      0A 24
    404	2261  45 52 52 4F 52 3A	20+  MsgErrNotLast   DB	'ERROR:	Another	TSR loaded after driver. Unload	it first.',13,10,'$'
    405	      41 6E 6F 74 68 65	72+
    406	      20 54 53 52 20 6C	6F+
    407	      61 64 65 64 20 61	66+
    408	      74 65 72 20 64 72	69+
    409	      76 65 72 2E 20 55	6E+
    410	      6C 6F 61 64 20 69	74+
    411	      20 66 69 72 73 74	2E+
    412	      0D 0A 24
    413
    414				     ; Unload helper variables (static,	not LOCAL for .COM compatibility)
    415	229C  0000		     Unload_TSRSeg	 DW 0
    416	229E  0000		     Unload_TSRBoardNum	 DW 0
    417	22A0  0000		     Unload_TSRPort	 DW 0
    418	22A2  00		     Unload_TSRMode	 DB 0
    419	22A3  00		     Unload_TSRIRQNum	 DB 0
    420
    421				     ; Help Screen
    422	22A4  0D 0A 44 43 45 4D	4C+  HelpText	     DB	13,10,'DCEMLID v1.00 - ODI MLID	Driver for Direct Cable	Connection',13,10
    423	      49 44 20 76 31 2E	30+
    424	      30 20 2D 20 4F 44	49+
    425	      20 4D 4C 49 44 20	44+
    426	      72 69 76 65 72 20	66+
    427	      6F 72 20 44 69 72	65+
    428	      63 74 20 43 61 62	6C+
    429	      65 20 43 6F 6E 6E	65+
    430	      63 74 69 6F 6E 0D	0A
    431	22E3  0D 0A 55 73 61 67	65+		     DB	13,10,'Usage: DCEMLID [/D] [/U]	[/?]',13,10
    432	      3A 20 44 43 45 4D	4C+
    433	      49 44 20 5B 2F 44	5D+
    434	      20 5B 2F 55 5D 20	5B+
    435	      2F 3F 5D 0D 0A
    436	2304  0D 0A 20 20 2F 44	20+		     DB	13,10,'	 /D  Enable debug output during	hardware detection',13,10
    437	      20 45 6E 61 62 6C	65+
    438	      20 64 65 62 75 67	20+
    439	      6F 75 74 70 75 74	20+
    440	      64 75 72 69 6E 67	20+
    441	      68 61 72 64 77 61	72+
    442	      65 20 64 65 74 65	63+
    443	      74 69 6F 6E 0D 0A
    444	233B  20 20 2F 55 20 20	55+		     DB	'  /U  Unload driver from memory',13,10
    445	      6E 6C 6F 61 64 20	64+
    446	      72 69 76 65 72 20	66+
    447	      72 6F 6D 20 6D 65	6D+
    448	      6F 72 79 0D 0A
    449	235C  20 20 2F 3F 20 20	53+		     DB	'  /?  Show this help',13,10
    450	      68 6F 77 20 74 68	69+
    451	      73 20 68 65 6C 70	0D+
    452	      0A
    453	2372  0D 0A 43 6F 6E 66	69+		     DB	13,10,'Configuration is	read from NET.CFG. Example:',13,10
    454	      67 75 72 61 74 69	6F+
    455	      6E 20 69 73 20 72	65+
    456	      61 64 20 66 72 6F	6D+
Turbo Assembler	 Version 4.1	    03/03/26 01:07:02	    Page 9
DCEMLID.ASM



    457	      20 4E 45 54 2E 43	46+
    458	      47 2E 20 45 78 61	6D+
    459	      70 6C 65 3A 0D 0A
    460	23A2  0D 0A 20 20 4C 69	6E+		     DB	13,10,'	 Link Driver DCEMLID',13,10
    461	      6B 20 44 72 69 76	65+
    462	      72 20 44 43 45 4D	4C+
    463	      49 44 0D 0A
    464	23BB  20 20 20 20 20 50	4F+		     DB	'     PORT 3F8',13,10
    465	      52 54 20 33 46 38	0D+
    466	      0A
    467	23CA  20 20 20 20 20 49	4E+		     DB	'     INT 4',13,10
    468	      54 20 34 0D 0A
    469	23D6  20 20 20 20 20 4D	4F+		     DB	'     MODE SERIAL',13,10
    470	      44 45 20 53 45 52	49+
    471	      41 4C 0D 0A
    472	23E8  20 20 20 20 20 42	41+		     DB	'     BAUD 115200',13,10
    473	      55 44 20 31 31 35	32+
    474	      30 30 0D 0A
    475	23FA  20 20 20 20 20 46	4C+		     DB	'     FLOW RTS',13,10
    476	      4F 57 20 52 54 53	0D+
    477	      0A
    478	2409  20 20 20 20 20 4E	4F+		     DB	'     NODE ADDRESS 02608C123456',13,10
    479	      44 45 20 41 44 44	52+
    480	      45 53 53 20 30 32	36+
    481	      30 38 43 31 32 33	34+
    482	      35 36 0D 0A
    483	2429  0D 0A 46 6F 72 20	6D+		     DB	13,10,'For multiple instances, specify board number:',13,10
    484	      75 6C 74 69 70 6C	65+
    485	      20 69 6E 73 74 61	6E+
    486	      63 65 73 2C 20 73	70+
    487	      65 63 69 66 79 20	62+
    488	      6F 61 72 64 20 6E	75+
    489	      6D 62 65 72 3A 0D	0A
    490	245A  20 20 4C 69 6E 6B	20+		     DB	'  Link	Driver DCEMLID 0',13,10
    491	      44 72 69 76 65 72	20+
    492	      44 43 45 4D 4C 49	44+
    493	      20 30 0D 0A
    494	2473  20 20 4C 69 6E 6B	20+		     DB	'  Link	Driver DCEMLID 1',13,10
    495	      44 72 69 76 65 72	20+
    496	      44 43 45 4D 4C 49	44+
    497	      20 31 0D 0A
    498	248C  0D 0A 53 65 72 69	61+		     DB	13,10,'Serial Null-Modem Cable Wiring (DB9):',13,10
    499	      6C 20 4E 75 6C 6C	2D+
    500	      4D 6F 64 65 6D 20	43+
    501	      61 62 6C 65 20 57	69+
    502	      72 69 6E 67 20 28	44+
    503	      42 39 29 3A 0D 0A
    504	24B5  20 20 48 61 72 64	77+		     DB	'  Hardware flow control:',13,10
    505	      61 72 65 20 66 6C	6F+
    506	      77 20 63 6F 6E 74	72+
    507	      6F 6C 3A 0D 0A
    508	24CF  20 20 20 20 50 69	6E+		     DB	'    Pin 2 (RXD) -------- Pin 3	(TXD)',13,10
    509	      20 32 20 28 52 58	44+
    510	      29 20 2D 2D 2D 2D	2D+
    511	      2D 2D 2D 20 50 69	6E+
    512	      20 33 20 28 54 58	44+
    513	      29 0D 0A
Turbo Assembler	 Version 4.1	    03/03/26 01:07:02	    Page 10
DCEMLID.ASM



    514	24F5  20 20 20 20 50 69	6E+		     DB	'    Pin 3 (TXD) -------- Pin 2	(RXD)',13,10
    515	      20 33 20 28 54 58	44+
    516	      29 20 2D 2D 2D 2D	2D+
    517	      2D 2D 2D 20 50 69	6E+
    518	      20 32 20 28 52 58	44+
    519	      29 0D 0A
    520	251B  20 20 20 20 50 69	6E+		     DB	'    Pin 7 (RTS) -------- Pin 8	(CTS)',13,10
    521	      20 37 20 28 52 54	53+
    522	      29 20 2D 2D 2D 2D	2D+
    523	      2D 2D 2D 20 50 69	6E+
    524	      20 38 20 28 43 54	53+
    525	      29 0D 0A
    526	2541  20 20 20 20 50 69	6E+		     DB	'    Pin 8 (CTS) -------- Pin 7	(RTS)',13,10
    527	      20 38 20 28 43 54	53+
    528	      29 20 2D 2D 2D 2D	2D+
    529	      2D 2D 2D 20 50 69	6E+
    530	      20 37 20 28 52 54	53+
    531	      29 0D 0A
    532	2567  20 20 20 20 50 69	6E+		     DB	'    Pin 5 (GND) -------- Pin 5	(GND)',13,10
    533	      20 35 20 28 47 4E	44+
    534	      29 20 2D 2D 2D 2D	2D+
    535	      2D 2D 2D 20 50 69	6E+
    536	      20 35 20 28 47 4E	44+
    537	      29 0D 0A
    538	258D  20 20 33 2D 77 69	72+		     DB	'  3-wire (software flow):',13,10
    539	      65 20 28 73 6F 66	74+
    540	      77 61 72 65 20 66	6C+
    541	      6F 77 29 3A 0D 0A
    542	25A8  20 20 20 20 50 69	6E+		     DB	'    Pin 2 (RXD) -------- Pin 3	(TXD)',13,10
    543	      20 32 20 28 52 58	44+
    544	      29 20 2D 2D 2D 2D	2D+
    545	      2D 2D 2D 20 50 69	6E+
    546	      20 33 20 28 54 58	44+
    547	      29 0D 0A
    548	25CE  20 20 20 20 50 69	6E+		     DB	'    Pin 3 (TXD) -------- Pin 2	(RXD)',13,10
    549	      20 33 20 28 54 58	44+
    550	      29 20 2D 2D 2D 2D	2D+
    551	      2D 2D 2D 20 50 69	6E+
    552	      20 32 20 28 52 58	44+
    553	      29 0D 0A
    554	25F4  20 20 20 20 50 69	6E+		     DB	'    Pin 5 (GND) -------- Pin 5	(GND)',13,10
    555	      20 35 20 28 47 4E	44+
    556	      29 20 2D 2D 2D 2D	2D+
    557	      2D 2D 2D 20 50 69	6E+
    558	      20 35 20 28 47 4E	44+
    559	      29 0D 0A
    560	261A  0D 0A 50 61 72 61	6C+		     DB	13,10,'Parallel	Cable Wiring (DB25):',13,10
    561	      6C 65 6C 20 43 61	62+
    562	      6C 65 20 57 69 72	69+
    563	      6E 67 20 28 44 42	32+
    564	      35 29 3A 0D 0A
    565	263B  20 20 34 2D 62 69	74+		     DB	'  4-bit mode: Use standard parallel cable',13,10
    566	      20 6D 6F 64 65 3A	20+
    567	      55 73 65 20 73 74	61+
    568	      6E 64 61 72 64 20	70+
    569	      61 72 61 6C 6C 65	6C+
    570	      20 63 61 62 6C 65	0D+
Turbo Assembler	 Version 4.1	    03/03/26 01:07:02	    Page 11
DCEMLID.ASM



    571	      0A
    572	2666  20 20 38 2D 62 69	74+		     DB	'  8-bit mode: Use EPP-capable cable or	PS/2 bidirectional',13,10
    573	      20 6D 6F 64 65 3A	20+
    574	      55 73 65 20 45 50	50+
    575	      2D 63 61 70 61 62	6C+
    576	      65 20 63 61 62 6C	65+
    577	      20 6F 72 20 50 53	2F+
    578	      32 20 62 69 64 69	72+
    579	      65 63 74 69 6F 6E	61+
    580	      6C 0D 0A
    581	26A1  0D 0A 24				     DB	13,10,'$'
    582
    583				     ; Command Line Options (only help and unload)
    584	26A4  2F 55 00		     OptUnload	     DB	'/U',0
    585	26A7  2F 3F 00		     OptHelp	     DB	'/?',0
    586	26AA  2F 44 00		     OptDebug	     DB	'/D',0
    587
    588				     ; Baud Rate Table (divisor	values for 115200 base)
    589	      =0005		     BaudTableSize EQU 5		  ; Number of baud rate	entries
    590	26AD			     BaudTable:
    591	26AD  00002580			 DD 9600
    592	26B1  000C			 DW 12			  ; 115200 / 12	= 9600
    593	26B3  00004B00			 DD 19200
    594	26B7  0006			 DW 6			  ; 115200 / 6 = 19200
    595	26B9  00009600			 DD 38400
    596	26BD  0003			 DW 3			  ; 115200 / 3 = 38400
    597	26BF  0000E100			 DD 57600
    598	26C3  0002			 DW 2			  ; 115200 / 2 = 57600
    599	26C5  0001C200			 DD 115200
    600	26C9  0001			 DW 1			  ; 115200 / 1 = 115200
    601	26CB  00000000			 DD 0			  ; End	marker
    602
    603				     ;=============================================================================
    604				     ; Main Code Section
    605				     ;=============================================================================
    606
    607	26CF			     Main:
    608					     ; All segment registers already point to CS in .COM file
    609					     ; (DOS sets CS=DS=ES=SS before running .COM)
    610
    611					 ; Display banner
    612	26CF  BA 1E74r			 lea	 dx, MsgBanner
    613	26D2  B4 09			 mov	 ah, 09h
    614	26D4  CD 21			 int	 21h
    615
    616					 ; Parse command line options FIRST (before any	LSL interaction)
    617	26D6  E8 003B			 call	 ParseCommandLine
    618
    619					 ; Check for help option - must	work even if driver not	loaded
    620	26D9  80 3E 2766r 01		 cmp	 byte ptr [CmdHelp], 1
    621	26DE  74 28			 je	 ShowHelp
    622
    623					 ; Check for unload option - must work when driver IS loaded
    624	26E0  80 3E 2767r 01		 cmp	 byte ptr [CmdUnload], 1
    625	26E5  75 03 E9 11B7		 je	 UnloadDriver
    626
    627					 ; Get configuration from LSL/NET.CFG (only for	installation)
Turbo Assembler	 Version 4.1	    03/03/26 01:07:02	    Page 12
DCEMLID.ASM



    628	26EA  E8 007C			 call	 GetConfigFromLSL
    629	26ED  72 14			 jc	 ExitError
    630
    631					 ; Install driver
    632	26EF  E8 03C9			 call	 InstallDriver
    633	26F2  72 0F			 jc	 ExitError
    634
    635					 ; Stay	resident
    636	26F4  B8 3100			 mov	 ax, 3100h	     ; TSR with	return code 0
    637	26F7  BA 390A			 mov	 dx, ResidentSize
    638	26FA  83 C2 0F			 add	 dx, 15
    639	26FD  B1 04			 mov	 cl, 4
    640	26FF  D3 EA			 shr	 dx, cl		     ; Convert bytes to	paragraphs
    641	2701  CD 21			 int	 21h
    642
    643	2703			     ExitError:
    644	2703  B8 4C01			 mov	 ax, 4C01h	     ; Exit with error code 1
    645	2706  CD 21			 int	 21h
    646
    647	2708			     ShowHelp:
    648	2708  BA 22A4r			 lea	 dx, HelpText
    649	270B  B4 09			 mov	 ah, 09h
    650	270D  CD 21			 int	 21h
    651	270F  B8 4C00			 mov	 ax, 4C00h
    652	2712  CD 21			 int	 21h
    653
    654				     ;=============================================================================
    655				     ; ParseCommandLine	- Parse	command	line options only
    656				     ; Sets CmdHelp, CmdUnload,	CmdDebug flags
    657				     ;=============================================================================
    658
    659	2714			     ParseCommandLine PROC
    660	2714  50			 push	 ax
    661	2715  51			 push	 cx
    662	2716  56			 push	 si
    663
    664					 ; Get command line from PSP
    665	2717  BE 0080			 mov	 si, 80h
    666	271A  33 C9			 xor	 cx, cx
    667	271C  8A 0C			 mov	 cl, [si]
    668	271E  46			 inc	 si
    669	271F  E3 41			 jcxz	 ParseCmdDone
    670
    671	2721			     ParseCmdLoop:
    672					 ; Skip	spaces
    673	2721  E8 02BC			 call	 SkipSpaces
    674	2724  E3 3C			 jcxz	 ParseCmdDone
    675
    676					 ; Check for option marker
    677	2726  80 3C 2F			 cmp	 byte ptr [si],	'/'
    678	2729  75 33			 jne	 ParseCmdNext
    679
    680					 ; Found option, check type
    681	272B  46			 inc	 si
    682	272C  49			 dec	 cx
    683	272D  E3 33			 jcxz	 ParseCmdDone
    684
Turbo Assembler	 Version 4.1	    03/03/26 01:07:02	    Page 13
DCEMLID.ASM



    685	272F  8A 04			 mov	 al, [si]
    686					 ; Convert to uppercase
    687	2731  3C 61			 cmp	 al, 'a'
    688	2733  72 06			 jb	 ParseCmdCheckOpt
    689	2735  3C 7A			 cmp	 al, 'z'
    690	2737  77 02			 ja	 ParseCmdCheckOpt
    691	2739  2C 20			 sub	 al, 20h
    692
    693	273B			     ParseCmdCheckOpt:
    694	273B  3C 3F			 cmp	 al, '?'
    695	273D  74 0A			 je	 SetHelpFlag
    696	273F  3C 55			 cmp	 al, 'U'
    697	2741  74 0D			 je	 SetUnloadFlag
    698	2743  3C 44			 cmp	 al, 'D'
    699	2745  74 10			 je	 SetDebugFlag
    700	2747  EB 15			 jmp	 ParseCmdNext
    701
    702	2749			     SetHelpFlag:
    703	2749  C6 06 2766r 01		 mov	 CmdHelp, 1
    704	274E  EB 0E			 jmp	 ParseCmdNext
    705
    706	2750			     SetUnloadFlag:
    707	2750  C6 06 2767r 01		 mov	 CmdUnload, 1
    708	2755  EB 07			 jmp	 ParseCmdNext
    709
    710	2757			     SetDebugFlag:
    711	2757  C6 06 2768r 01		 mov	 CmdDebug, 1
    712	275C  EB 00			 jmp	 ParseCmdNext
    713
    714	275E			     ParseCmdNext:
    715	275E  46			 inc	 si
    716	275F  49			 dec	 cx
    717	2760  75 BF			 jnz	 ParseCmdLoop
    718
    719	2762			     ParseCmdDone:
    720	2762  5E			 pop	 si
    721	2763  59			 pop	 cx
    722	2764  58			 pop	 ax
    723	2765  C3			 ret
    724	2766			     ParseCommandLine ENDP
    725
    726				     ;=============================================================================
    727				     ; GetConfigFromLSL	- Retrieve configuration from LSL/NET.CFG
    728				     ; Input: None
    729				     ; Output: CF=1 on error, CF=0 on success
    730				     ;=============================================================================
    731
    732	2766  00		     CmdHelp	     DB	0
    733	2767  00		     CmdUnload	     DB	0
    734	2768  00		     CmdDebug	     DB	0
    735
    736	2769			     GetConfigFromLSL PROC
    737	2769  50			 push	 ax
    738	276A  53			 push	 bx
    739	276B  51			 push	 cx
    740	276C  52			 push	 dx
    741	276D  56			 push	 si
Turbo Assembler	 Version 4.1	    03/03/26 01:07:02	    Page 14
DCEMLID.ASM



    742	276E  57			 push	 di
    743	276F  06			 push	 es
    744
    745					 ; Initialize defaults
    746	2770  C6 06 010Br 00		 mov	 CfgData.Mode, 0	     ; Serial
    747	2775  C7 06 010Cr 03F8		 mov	 CfgData.Port, 3F8h	     ; COM1
    748	277B  C7 06 010Er C200		 mov	 word ptr CfgData.BaudRate, 0C200h     ; 115200	low word
    749	2781  C7 06 0110r 0001		 mov	 word ptr CfgData.BaudRate+2, 1	       ; 115200	high word
    750	2787  C6 06 0112r 00		 mov	 CfgData.FlowCtrl, 0	     ; RTS/CTS
    751	278C  C7 06 011Cr 0000		 mov	 CfgData.BoardNum, 0	     ; First instance
    752
    753					 ; Generate random MAC from BIOS timer (may be overridden)
    754	2792  E8 02F4			 call	 GenerateRandomMAC
    755
    756					 ; Get board number from command line if specified
    757	2795  BE 0080			 mov	 si, 80h
    758	2798  33 C9			 xor	 cx, cx
    759	279A  8A 0C			 mov	 cl, [si]
    760	279C  46			 inc	 si
    761	279D  E3 2A			 jcxz	 NoBoardNum
    762
    763					 ; Skip	spaces and options to find board number
    764	279F  E8 023E			 call	 SkipSpaces
    765	27A2  E3 25			 jcxz	 NoBoardNum
    766
    767	27A4			     ParseCmdArg:
    768					 ; Skip	options	(starting with /)
    769	27A4  80 3C 2F			 cmp	 byte ptr [si],	'/'
    770	27A7  75 0F			 jne	 TryBoardNum
    771					 ; Skip	this option
    772	27A9  46			 inc	 si
    773	27AA  49			 dec	 cx
    774	27AB  E3 1C			 jcxz	 NoBoardNum
    775	27AD  46			 inc	 si
    776	27AE  49			 dec	 cx
    777	27AF  E3 18			 jcxz	 NoBoardNum
    778	27B1  E8 022C			 call	 SkipSpaces
    779	27B4  E3 13			 jcxz	 NoBoardNum
    780	27B6  EB EC			 jmp	 ParseCmdArg
    781
    782	27B8			     TryBoardNum:
    783					 ; Parse board number (0-9)
    784	27B8  8A 04			 mov	 al, [si]
    785	27BA  3C 30			 cmp	 al, '0'
    786	27BC  72 0B			 jb	 NoBoardNum
    787	27BE  3C 39			 cmp	 al, '9'
    788	27C0  77 07			 ja	 NoBoardNum
    789	27C2  2C 30			 sub	 al, '0'
    790	27C4  32 E4			 xor	 ah, ah
    791	27C6  A3 011Cr			 mov	 CfgData.BoardNum, ax
    792
    793	27C9			     NoBoardNum:
    794					 ; Call	LSL to get configuration
    795					 ; AX =	LSL_GET_CONFIG (0xC003)
    796					 ; BX =	Board number
    797					 ; ES:SI = Driver name
    798	27C9  B8 C003			 mov	 ax, LSL_GET_CONFIG
Turbo Assembler	 Version 4.1	    03/03/26 01:07:02	    Page 15
DCEMLID.ASM



    799	27CC  8B 1E 011Cr		 mov	 bx, CfgData.BoardNum
    800	27D0  1E			 push	 ds
    801	27D1  07			 pop	 es
    802	27D2  BE 0103r			 lea	 si, DRIVER_NAME
    803	27D5  CD 2F			 int	 2Fh
    804
    805					 ; Check if configuration found
    806	27D7  3C 00			 cmp	 al, 0
    807	27D9  75 0E			 jne	 NoConfig
    808
    809					 ; ES:SI now points to configuration block from	NET.CFG
    810					 ; Parse configuration keywords
    811	27DB  E8 0017			 call	 ParseLSLConfig
    812	27DE  72 0C			 jc	 ConfigError
    813
    814	27E0			     ConfigDone:
    815	27E0  F8			 clc
    816	27E1  07			 pop	 es
    817	27E2  5F			 pop	 di
    818	27E3  5E			 pop	 si
    819	27E4  5A			 pop	 dx
    820	27E5  59			 pop	 cx
    821	27E6  5B			 pop	 bx
    822	27E7  58			 pop	 ax
    823	27E8  C3			 ret
    824
    825	27E9			     NoConfig:
    826					 ; No configuration in NET.CFG,	use defaults
    827	27E9  F8			 clc
    828	27EA  EB F4			 jmp	 ConfigDone
    829
    830	27EC			     ConfigError:
    831	27EC  F9			 stc
    832	27ED  07			 pop	 es
    833	27EE  5F			 pop	 di
    834	27EF  5E			 pop	 si
    835	27F0  5A			 pop	 dx
    836	27F1  59			 pop	 cx
    837	27F2  5B			 pop	 bx
    838	27F3  58			 pop	 ax
    839	27F4  C3			 ret
    840	27F5			     GetConfigFromLSL ENDP
    841
    842				     ;=============================================================================
    843				     ; ParseLSLConfig -	Parse LSL configuration	block
    844				     ; Input: ES:SI = configuration string from	LSL
    845				     ; Output: CF=1 on error, CF=0 on success
    846				     ;=============================================================================
    847
    848	27F5			     ParseLSLConfig PROC
    849	27F5  50			 push	 ax
    850	27F6  53			 push	 bx
    851	27F7  51			 push	 cx
    852	27F8  52			 push	 dx
    853	27F9  56			 push	 si
    854	27FA  57			 push	 di
    855
Turbo Assembler	 Version 4.1	    03/03/26 01:07:02	    Page 16
DCEMLID.ASM



    856	27FB			     ParseLSLLoop:
    857					 ; Check for end of configuration
    858	27FB  26: 8A 04			 mov	 al, es:[si]
    859	27FE  84 C0			 test	 al, al
    860	2800  75 03 E9 00E4		 jz	 ParseLSLDone
    861
    862					 ; Skip	spaces
    863	2805			     SkipLSLSpaces:
    864	2805  26: 80 3C	20		 cmp	 byte ptr es:[si], ' '
    865	2809  75 03			 jne	 NotSpace
    866	280B  46			 inc	 si
    867	280C  EB F7			 jmp	 SkipLSLSpaces
    868	280E			     NotSpace:
    869
    870					 ; Check for PORT keyword
    871	280E  BF 1E43r			 lea	 di, CfgKeyPort
    872	2811  E8 00DD			 call	 CompareLSLKeyword
    873	2814  74 33			 je	 ParseLSLPort
    874
    875					 ; Check for INT keyword
    876	2816  BF 1E48r			 lea	 di, CfgKeyInt
    877	2819  E8 00D5			 call	 CompareLSLKeyword
    878	281C  74 35			 je	 ParseLSLInt
    879
    880					 ; Check for MODE keyword
    881	281E  BF 1E3Er			 lea	 di, CfgKeyMode
    882	2821  E8 00CD			 call	 CompareLSLKeyword
    883	2824  74 37			 je	 ParseLSLMode
    884
    885					 ; Check for BAUD keyword
    886	2826  BF 1E4Cr			 lea	 di, CfgKeyBaud
    887	2829  E8 00C5			 call	 CompareLSLKeyword
    888	282C  74 6D			 je	 ParseLSLBaud
    889
    890					 ; Check for FLOW keyword
    891	282E  BF 1E51r			 lea	 di, CfgKeyFlow
    892	2831  E8 00BD			 call	 CompareLSLKeyword
    893	2834  74 79 90 90 90		 je	 ParseLSLFlow
    894
    895					 ; Check for NODE keyword
    896	2839  BF 1E56r			 lea	 di, CfgKeyNode
    897	283C  E8 00B2			 call	 CompareLSLKeyword
    898	283F  75 03 E9 008E		 je	 ParseLSLNode
    899
    900					 ; Unknown keyword, skip to end	of line
    901	2844  E8 016F			 call	 SkipToLSLEOL
    902	2847  EB B2			 jmp	 ParseLSLLoop
    903
    904	2849			     ParseLSLPort:
    905	2849  E8 010A			 call	 ParseLSLHexValue
    906	284C  72 AD			 jc	 ParseLSLLoop
    907	284E  A3 010Cr			 mov	 CfgData.Port, ax
    908	2851  EB A8			 jmp	 ParseLSLLoop
    909
    910	2853			     ParseLSLInt:
    911	2853  E8 011C			 call	 ParseLSLDecValue
    912	2856  72 A3			 jc	 ParseLSLLoop
Turbo Assembler	 Version 4.1	    03/03/26 01:07:02	    Page 17
DCEMLID.ASM



    913	2858  A2 0119r			 mov	 CfgData.IRQNum, al
    914	285B  EB 9E			 jmp	 ParseLSLLoop
    915
    916	285D			     ParseLSLMode:
    917	285D  BF 1E5Br			 lea	 di, CfgValSerial
    918	2860  E8 00B9			 call	 CompareLSLValue
    919	2863  74 12			 je	 SetModeSerial
    920	2865  BF 1E62r			 lea	 di, CfgValPar4
    921	2868  E8 00B1			 call	 CompareLSLValue
    922	286B  74 12			 je	 SetModePar4
    923	286D  BF 1E67r			 lea	 di, CfgValPar8
    924	2870  E8 00A9			 call	 CompareLSLValue
    925	2873  74 18			 je	 SetModePar8
    926	2875  EB 84			 jmp	 ParseLSLLoop
    927
    928	2877			     SetModeSerial:
    929	2877  C6 06 010Br 00		 mov	 CfgData.Mode, 0
    930	287C  E9 FF7C			 jmp	 ParseLSLLoop
    931
    932	287F			     SetModePar4:
    933	287F  C6 06 010Br 01		 mov	 CfgData.Mode, 1
    934	2884  C7 06 010Cr 0378		 mov	 CfgData.Port, 378h	     ; Default LPT1
    935	288A  E9 FF6E			 jmp	 ParseLSLLoop
    936
    937	288D			     SetModePar8:
    938	288D  C6 06 010Br 02		 mov	 CfgData.Mode, 2
    939	2892  C7 06 010Cr 0378		 mov	 CfgData.Port, 378h	     ; Default LPT1
    940	2898  E9 FF60			 jmp	 ParseLSLLoop
    941
    942	289B			     ParseLSLBaud:
    943	289B  E8 00D4			 call	 ParseLSLDecValue
    944	289E  73 03 E9 FF58		 jc	 ParseLSLLoop
    945	28A3  A3 010Er			 mov	 word ptr CfgData.BaudRate, ax
    946	28A6  C7 06 0110r 0000		 mov	 word ptr CfgData.BaudRate+2, 0
    947	28AC  E9 FF4C			 jmp	 ParseLSLLoop
    948
    949	28AF			     ParseLSLFlow:
    950	28AF  BF 1E6Cr			 lea	 di, CfgValRTS
    951	28B2  E8 0067			 call	 CompareLSLValue
    952	28B5  74 0B			 je	 SetFlowRTS
    953	28B7  BF 1E70r			 lea	 di, CfgValXON
    954	28BA  E8 005F			 call	 CompareLSLValue
    955	28BD  74 0B			 je	 SetFlowXON
    956	28BF  E9 FF39			 jmp	 ParseLSLLoop
    957
    958	28C2			     SetFlowRTS:
    959	28C2  C6 06 0112r 00		 mov	 CfgData.FlowCtrl, 0
    960	28C7  E9 FF31			 jmp	 ParseLSLLoop
    961
    962	28CA			     SetFlowXON:
    963	28CA  C6 06 0112r 01		 mov	 CfgData.FlowCtrl, 1
    964	28CF  E9 FF29			 jmp	 ParseLSLLoop
    965
    966	28D2			     ParseLSLNode:
    967					 ; Parse NODE ADDRESS xxxxxxxxxxxx (12 hex digits)
    968					 ; Skip	"ADDRESS" keyword
    969	28D2  E8 00F4			 call	 SkipLSLWord
Turbo Assembler	 Version 4.1	    03/03/26 01:07:02	    Page 18
DCEMLID.ASM



    970					 ; Parse 12 hex	digits for MAC address
    971	28D5  BF 0113r			 lea	 di, CfgData.MacAddr
    972	28D8  B9 0006			 mov	 cx, 6
    973	28DB			     ParseLSLNodeLoop:
    974	28DB  E8 00BB			 call	 ParseLSLHexByte
    975	28DE  73 03 E9 FF18		 jc	 ParseLSLLoop
    976	28E3  AA			 stosb
    977	28E4  E2 F5			 loop	 ParseLSLNodeLoop
    978	28E6  E9 FF12			 jmp	 ParseLSLLoop
    979
    980	28E9			     ParseLSLDone:
    981	28E9  F8			 clc
    982	28EA  5F			 pop	 di
    983	28EB  5E			 pop	 si
    984	28EC  5A			 pop	 dx
    985	28ED  59			 pop	 cx
    986	28EE  5B			 pop	 bx
    987	28EF  58			 pop	 ax
    988	28F0  C3			 ret
    989	28F1			     ParseLSLConfig ENDP
    990
    991				     ; Helper: Compare keyword at ES:SI	with DS:DI
    992	28F1			     CompareLSLKeyword PROC
    993	28F1  56			 push	 si
    994	28F2  57			 push	 di
    995	28F3			     CompLSLKeyLoop:
    996	28F3  8A 05			 mov	 al, [di]
    997	28F5  84 C0			 test	 al, al
    998	28F7  74 13			 jz	 CompLSLKeyMatch
    999	28F9  26: 8A 24			 mov	 ah, es:[si]
   1000	28FC  E8 00F7			 call	 ToUpper
   1001	28FF  86 C4			 xchg	 al, ah
   1002	2901  E8 00F2			 call	 ToUpper
   1003	2904  3A C4			 cmp	 al, ah
   1004	2906  75 0F			 jne	 CompLSLKeyNoMatch
   1005	2908  46			 inc	 si
   1006	2909  47			 inc	 di
   1007	290A  EB E7			 jmp	 CompLSLKeyLoop
   1008	290C			     CompLSLKeyMatch:
   1009	290C  5F			 pop	 di
   1010	290D  5E			 pop	 si
   1011					 ; Advance SI past keyword
   1012	290E  03 F7			 add	 si, di
   1013	2910  81 EE 1E3Er		 sub	 si, offset CfgKeyMode
   1014	2914  32 C0			 xor	 al, al		     ; Set ZF
   1015	2916  C3			 ret
   1016	2917			     CompLSLKeyNoMatch:
   1017	2917  5F			 pop	 di
   1018	2918  5E			 pop	 si
   1019	2919  0C 01			 or	 al, 1		     ; Clear ZF
   1020	291B  C3			 ret
   1021	291C			     CompareLSLKeyword ENDP
   1022
   1023				     ; Helper: Compare value at	ES:SI with DS:DI
   1024	291C			     CompareLSLValue PROC
   1025	291C  56			 push	 si
   1026	291D  57			 push	 di
Turbo Assembler	 Version 4.1	    03/03/26 01:07:02	    Page 19
DCEMLID.ASM



   1027	291E			     CompLSLValLoop:
   1028	291E  8A 05			 mov	 al, [di]
   1029	2920  84 C0			 test	 al, al
   1030	2922  74 22			 jz	 CompLSLValMatch
   1031	2924  26: 8A 24			 mov	 ah, es:[si]
   1032	2927  80 FC 20			 cmp	 ah, ' '
   1033	292A  74 1A			 je	 CompLSLValMatch
   1034	292C  80 FC 0D			 cmp	 ah, 13
   1035	292F  74 15			 je	 CompLSLValMatch
   1036	2931  80 FC 0A			 cmp	 ah, 10
   1037	2934  74 10			 je	 CompLSLValMatch
   1038	2936  E8 00BD			 call	 ToUpper
   1039	2939  86 C4			 xchg	 al, ah
   1040	293B  E8 00B8			 call	 ToUpper
   1041	293E  3A C4			 cmp	 al, ah
   1042	2940  75 0F			 jne	 CompLSLValNoMatch
   1043	2942  46			 inc	 si
   1044	2943  47			 inc	 di
   1045	2944  EB D8			 jmp	 CompLSLValLoop
   1046	2946			     CompLSLValMatch:
   1047	2946  5F			 pop	 di
   1048	2947  5E			 pop	 si
   1049	2948  03 F7			 add	 si, di
   1050	294A  81 EE 1E5Br		 sub	 si, offset CfgValSerial
   1051	294E  32 C0			 xor	 al, al
   1052	2950  C3			 ret
   1053	2951			     CompLSLValNoMatch:
   1054	2951  5F			 pop	 di
   1055	2952  5E			 pop	 si
   1056	2953  0C 01			 or	 al, 1
   1057	2955  C3			 ret
   1058	2956			     CompareLSLValue ENDP
   1059
   1060				     ; Helper: Parse hex value from ES:SI
   1061	2956			     ParseLSLHexValue PROC
   1062	2956  53			 push	 bx
   1063	2957  33 DB			 xor	 bx, bx
   1064	2959  B9 0004			 mov	 cx, 4
   1065	295C			     ParseLSLHexLoop:
   1066	295C  26: 8A 04			 mov	 al, es:[si]
   1067	295F  E8 00E1			 call	 HexDigitToValue
   1068	2962  72 09			 jc	 ParseLSLHexDone
   1069	2964  B1 04			 mov	 cl, 4
   1070	2966  D3 E3			 shl	 bx, cl
   1071	2968  0A D8			 or	 bl, al
   1072	296A  46			 inc	 si
   1073	296B  E2 EF			 loop	 ParseLSLHexLoop
   1074	296D			     ParseLSLHexDone:
   1075	296D  8B C3			 mov	 ax, bx
   1076	296F  F8			 clc
   1077	2970  5B			 pop	 bx
   1078	2971  C3			 ret
   1079	2972			     ParseLSLHexValue ENDP
   1080
   1081				     ; Helper: Parse decimal value from	ES:SI
   1082	2972			     ParseLSLDecValue PROC
   1083	2972  53			 push	 bx
Turbo Assembler	 Version 4.1	    03/03/26 01:07:02	    Page 20
DCEMLID.ASM



   1084	2973  52			 push	 dx
   1085	2974  33 DB			 xor	 bx, bx
   1086	2976			     ParseLSLDecLoop:
   1087	2976  26: 8A 04			 mov	 al, es:[si]
   1088	2979  3C 30			 cmp	 al, '0'
   1089	297B  72 16			 jb	 ParseLSLDecDone
   1090	297D  3C 39			 cmp	 al, '9'
   1091	297F  77 12			 ja	 ParseLSLDecDone
   1092	2981  2C 30			 sub	 al, '0'
   1093	2983  BA 000A			 mov	 dx, 10
   1094	2986  50			 push	 ax
   1095	2987  8B C3			 mov	 ax, bx
   1096	2989  F7 E2			 mul	 dx
   1097	298B  8B D8			 mov	 bx, ax
   1098	298D  58			 pop	 ax
   1099	298E  03 D8			 add	 bx, ax
   1100	2990  46			 inc	 si
   1101	2991  EB E3			 jmp	 ParseLSLDecLoop
   1102	2993			     ParseLSLDecDone:
   1103	2993  8B C3			 mov	 ax, bx
   1104	2995  F8			 clc
   1105	2996  5A			 pop	 dx
   1106	2997  5B			 pop	 bx
   1107	2998  C3			 ret
   1108	2999			     ParseLSLDecValue ENDP
   1109
   1110				     ; Helper: Parse hex byte from ES:SI
   1111	2999			     ParseLSLHexByte PROC
   1112	2999  53			 push	 bx
   1113	299A  32 E4			 xor	 ah, ah
   1114	299C  B3 02			 mov	 bl, 2
   1115	299E			     ParseLSLHexByteLoop:
   1116	299E  26: 8A 04			 mov	 al, es:[si]
   1117	29A1  E8 009F			 call	 HexDigitToValue
   1118	29A4  72 0B			 jc	 ParseLSLHexByteDone
   1119	29A6  B1 04			 mov	 cl, 4
   1120	29A8  D2 E4			 shl	 ah, cl
   1121	29AA  0A E0			 or	 ah, al
   1122	29AC  46			 inc	 si
   1123	29AD  FE CB			 dec	 bl
   1124	29AF  75 ED			 jnz	 ParseLSLHexByteLoop
   1125	29B1			     ParseLSLHexByteDone:
   1126	29B1  8A C4			 mov	 al, ah
   1127	29B3  F8			 clc
   1128	29B4  5B			 pop	 bx
   1129	29B5  C3			 ret
   1130	29B6			     ParseLSLHexByte ENDP
   1131
   1132				     ; Helper: Skip to end of line
   1133	29B6			     SkipToLSLEOL PROC
   1134	29B6			     SkipLSLEOLLoop:
   1135	29B6  26: 8A 04			 mov	 al, es:[si]
   1136	29B9  3C 0D			 cmp	 al, 13
   1137	29BB  74 0B			 je	 SkipLSLEOLDone
   1138	29BD  3C 0A			 cmp	 al, 10
   1139	29BF  74 07			 je	 SkipLSLEOLDone
   1140	29C1  84 C0			 test	 al, al
Turbo Assembler	 Version 4.1	    03/03/26 01:07:02	    Page 21
DCEMLID.ASM



   1141	29C3  74 03			 jz	 SkipLSLEOLDone
   1142	29C5  46			 inc	 si
   1143	29C6  EB EE			 jmp	 SkipLSLEOLLoop
   1144	29C8			     SkipLSLEOLDone:
   1145	29C8  C3			 ret
   1146	29C9			     SkipToLSLEOL ENDP
   1147
   1148				     ; Helper: Skip one	word
   1149	29C9			     SkipLSLWord PROC
   1150	29C9			     SkipLSLWordLoop:
   1151	29C9  26: 8A 04			 mov	 al, es:[si]
   1152	29CC  3C 20			 cmp	 al, ' '
   1153	29CE  74 0F			 je	 SkipLSLWordDone
   1154	29D0  3C 0D			 cmp	 al, 13
   1155	29D2  74 0B			 je	 SkipLSLWordDone
   1156	29D4  3C 0A			 cmp	 al, 10
   1157	29D6  74 07			 je	 SkipLSLWordDone
   1158	29D8  84 C0			 test	 al, al
   1159	29DA  74 03			 jz	 SkipLSLWordDone
   1160	29DC  46			 inc	 si
   1161	29DD  EB EA			 jmp	 SkipLSLWordLoop
   1162	29DF			     SkipLSLWordDone:
   1163	29DF  C3			 ret
   1164	29E0			     SkipLSLWord ENDP
   1165
   1166				     ;=============================================================================
   1167				     ; Helper Procedures for Command Line Parsing
   1168				     ;=============================================================================
   1169
   1170	29E0			     SkipSpaces	PROC
   1171	29E0  E3 08			 jcxz	 SkipSpacesDone
   1172	29E2			     SkipSpacesLoop:
   1173	29E2  80 3C 20			 cmp	 byte ptr [si],	' '
   1174	29E5  75 03			 jne	 SkipSpacesDone
   1175	29E7  46			 inc	 si
   1176	29E8  E2 F8			 loop	 SkipSpacesLoop
   1177	29EA			     SkipSpacesDone:
   1178	29EA  C3			 ret
   1179	29EB			     SkipSpaces	ENDP
   1180
   1181	29EB			     SkipToSpace PROC
   1182	29EB  E3 08			 jcxz	 SkipToSpaceDone
   1183	29ED			     SkipToSpaceLoop:
   1184	29ED  80 3C 20			 cmp	 byte ptr [si],	' '
   1185	29F0  74 03			 je	 SkipToSpaceDone
   1186	29F2  46			 inc	 si
   1187	29F3  E2 F8			 loop	 SkipToSpaceLoop
   1188	29F5			     SkipToSpaceDone:
   1189	29F5  C3			 ret
   1190	29F6			     SkipToSpace ENDP
   1191
   1192	29F6			     ToUpper PROC
   1193					 ; Convert AL to uppercase
   1194	29F6  3C 61			 cmp	 al, 'a'
   1195	29F8  72 06			 jb	 ToUpperDone
   1196	29FA  3C 7A			 cmp	 al, 'z'
   1197	29FC  77 02			 ja	 ToUpperDone
Turbo Assembler	 Version 4.1	    03/03/26 01:07:02	    Page 22
DCEMLID.ASM



   1198	29FE  2C 20			 sub	 al, 20h
   1199	2A00			     ToUpperDone:
   1200	2A00  C3			 ret
   1201	2A01			     ToUpper ENDP
   1202
   1203	2A01			     ParseHexWord PROC
   1204					 ; Parse hex word at SI, return	in AX
   1205					 ; Updates SI and CX
   1206	2A01  53			 push	 bx
   1207	2A02  52			 push	 dx
   1208	2A03  33 C0			 xor	 ax, ax
   1209	2A05  33 DB			 xor	 bx, bx
   1210	2A07  B2 04			 mov	 dl, 4		     ; Max 4 hex digits
   1211	2A09			     ParseHexLoop:
   1212	2A09  8A 04			 mov	 al, [si]
   1213	2A0B  E8 0035			 call	 HexDigitToValue
   1214	2A0E  72 0E			 jc	 ParseHexDone
   1215
   1216	2A10  51			 push	 cx		 ; Save	outer loop counter
   1217	2A11  B1 04			 mov	 cl, 4
   1218	2A13  D3 E3			 shl	 bx, cl
   1219	2A15  59			 pop	 cx		 ; Restore outer loop counter
   1220	2A16  0A D8			 or	 bl, al
   1221	2A18  46			 inc	 si
   1222	2A19  49			 dec	 cx
   1223	2A1A  FE CA			 dec	 dl
   1224	2A1C  75 EB			 jnz	 ParseHexLoop
   1225
   1226	2A1E			     ParseHexDone:
   1227	2A1E  8B C3			 mov	 ax, bx
   1228	2A20  F8			 clc
   1229	2A21  5A			 pop	 dx
   1230	2A22  5B			 pop	 bx
   1231	2A23  C3			 ret
   1232	2A24			     ParseHexWord ENDP
   1233
   1234	2A24			     ParseHexByte PROC
   1235					 ; Parse hex byte at SI, return	in AL
   1236	2A24  53			 push	 bx
   1237	2A25  33 DB			 xor	 bx, bx
   1238	2A27  B3 02			 mov	 bl, 2		     ; Max 2 hex digits
   1239	2A29			     ParseHexByteLoop:
   1240	2A29  8A 04			 mov	 al, [si]
   1241	2A2B  E8 0015			 call	 HexDigitToValue
   1242	2A2E  72 0E			 jc	 ParseHexByteDone
   1243
   1244	2A30  51			 push	 cx		 ; Save	outer loop counter
   1245	2A31  B1 04			 mov	 cl, 4
   1246	2A33  D2 E4			 shl	 ah, cl
   1247	2A35  59			 pop	 cx		 ; Restore outer loop counter
   1248	2A36  0A E0			 or	 ah, al
   1249	2A38  46			 inc	 si
   1250	2A39  49			 dec	 cx
   1251	2A3A  FE CB			 dec	 bl
   1252	2A3C  75 EB			 jnz	 ParseHexByteLoop
   1253
   1254	2A3E			     ParseHexByteDone:
Turbo Assembler	 Version 4.1	    03/03/26 01:07:02	    Page 23
DCEMLID.ASM



   1255	2A3E  8A C4			 mov	 al, ah
   1256	2A40  F8			 clc
   1257	2A41  5B			 pop	 bx
   1258	2A42  C3			 ret
   1259	2A43			     ParseHexByte ENDP
   1260
   1261	2A43			     HexDigitToValue PROC
   1262					 ; Convert hex digit in	AL to value (0-15)
   1263					 ; CF=1	if not a hex digit
   1264	2A43  3C 30			 cmp	 al, '0'
   1265	2A45  72 17			 jb	 HexNotDigit
   1266	2A47  3C 39			 cmp	 al, '9'
   1267	2A49  76 0F			 jbe	 HexIsDigit
   1268	2A4B  E8 FFA8			 call	 ToUpper
   1269	2A4E  3C 41			 cmp	 al, 'A'
   1270	2A50  72 0C			 jb	 HexNotDigit
   1271	2A52  3C 46			 cmp	 al, 'F'
   1272	2A54  77 08			 ja	 HexNotDigit
   1273	2A56  2C 37			 sub	 al, 'A' - 10
   1274	2A58  F8			 clc
   1275	2A59  C3			 ret
   1276	2A5A			     HexIsDigit:
   1277	2A5A  2C 30			 sub	 al, '0'
   1278	2A5C  F8			 clc
   1279	2A5D  C3			 ret
   1280	2A5E			     HexNotDigit:
   1281	2A5E  F9			 stc
   1282	2A5F  C3			 ret
   1283	2A60			     HexDigitToValue ENDP
   1284
   1285	2A60			     ParseDecWord PROC
   1286					 ; Parse decimal word at SI, return in AX
   1287	2A60  53			 push	 bx
   1288	2A61  52			 push	 dx
   1289	2A62  33 C0			 xor	 ax, ax
   1290	2A64  33 DB			 xor	 bx, bx
   1291	2A66			     ParseDecLoop:
   1292	2A66  8A 04			 mov	 al, [si]
   1293	2A68  3C 30			 cmp	 al, '0'
   1294	2A6A  72 17			 jb	 ParseDecDone
   1295	2A6C  3C 39			 cmp	 al, '9'
   1296	2A6E  77 13			 ja	 ParseDecDone
   1297
   1298	2A70  2C 30			 sub	 al, '0'
   1299	2A72  BA 000A			 mov	 dx, 10
   1300	2A75  50			 push	 ax
   1301	2A76  8B C3			 mov	 ax, bx
   1302	2A78  F7 E2			 mul	 dx
   1303	2A7A  8B D8			 mov	 bx, ax
   1304	2A7C  58			 pop	 ax
   1305	2A7D  03 D8			 add	 bx, ax
   1306
   1307	2A7F  46			 inc	 si
   1308	2A80  49			 dec	 cx
   1309	2A81  75 E3			 jnz	 ParseDecLoop
   1310
   1311	2A83			     ParseDecDone:
Turbo Assembler	 Version 4.1	    03/03/26 01:07:02	    Page 24
DCEMLID.ASM



   1312	2A83  8B C3			 mov	 ax, bx
   1313	2A85  F8			 clc
   1314	2A86  5A			 pop	 dx
   1315	2A87  5B			 pop	 bx
   1316	2A88  C3			 ret
   1317	2A89			     ParseDecWord ENDP
   1318
   1319	2A89			     GenerateRandomMAC PROC
   1320					 ; Generate random MAC using BIOS timer	tick
   1321	2A89  06			 push	 es
   1322	2A8A  33 C0			 xor	 ax, ax
   1323	2A8C  8E C0			 mov	 es, ax
   1324	2A8E  26: A1 046C		 mov	 ax, es:[046Ch]	     ; BIOS timer tick low word
   1325	2A92  88 26 0113r		 mov	 CfgData.MacAddr[0], ah
   1326	2A96  A2 0114r			 mov	 CfgData.MacAddr[1], al
   1327	2A99  26: A1 046E		 mov	 ax, es:[046Eh]	     ; BIOS timer tick high word
   1328	2A9D  88 26 0115r		 mov	 CfgData.MacAddr[2], ah
   1329	2AA1  A2 0116r			 mov	 CfgData.MacAddr[3], al
   1330
   1331					 ; Add some entropy from other BIOS data area values
   1332	2AA4  26: A1 0040		 mov	 ax, es:[0040h]
   1333	2AA8  88 26 0117r		 mov	 CfgData.MacAddr[4], ah
   1334	2AAC  A2 0118r			 mov	 CfgData.MacAddr[5], al
   1335
   1336					 ; Ensure locally administered,	unicast	MAC
   1337	2AAF  80 26 0113r FE		 and	 CfgData.MacAddr[0], 0FEh
   1338	2AB4  80 0E 0113r 02		 or	 CfgData.MacAddr[0], 02h
   1339
   1340	2AB9  07			 pop	 es
   1341	2ABA  C3			 ret
   1342	2ABB			     GenerateRandomMAC ENDP
   1343
   1344				     ;=============================================================================
   1345				     ; InstallDriver - Main driver installation	routine
   1346				     ; Output: CF=1 on error
   1347				     ;=============================================================================
   1348
   1349	2ABB			     InstallDriver PROC
   1350					 ; Check if already loaded
   1351	2ABB  B8 C0A0			 mov	 ax, MULTIPLEX_ID
   1352	2ABE  CD 2F			 int	 2Fh
   1353	2AC0  3C FF			 cmp	 al, 0FFh
   1354	2AC2  75 03 E9 00C3		 je	 AlreadyLoaded
   1355
   1356					 ; Check if LSL	is loaded
   1357	2AC7  B8 C000			 mov	 ax, LSL_CHECK
   1358	2ACA  CD 2F			 int	 2Fh
   1359	2ACC  3C FF			 cmp	 al, 0FFh
   1360	2ACE  74 03 E9 00C0		 jne	 LSLNotLoaded
   1361
   1362					 ; LSL 2.x returns:
   1363					 ; AL =	FFh (loaded)
   1364					 ; ES:BX = pointer to LSL function table (entry	point)
   1365					 ; CX or DX may	contain	version	in some	implementations
   1366					 ;
   1367					 ; Save	registers immediately before any debug code modifies them
   1368	2AD3  8C 06 0146r		 mov	 LSLEntrySeg, es
Turbo Assembler	 Version 4.1	    03/03/26 01:07:02	    Page 25
DCEMLID.ASM



   1369	2AD7  89 1E 0144r		 mov	 LSLEntryOff, bx
   1370
   1371					 ; For LSL 2.x,	ES:BX IS the entry point (function table)
   1372					 ; Skip	version	detection - we verified	LSL is loaded (AL=FFh)
   1373					 ; Version checking removed since we can't reliably detect it
   1374	2ADB  C7 06 0148r 0200		 mov	 LSLVersion, 0200h   ; Assume 2.0 compatible
   1375
   1376					 ; Skip	version	check -	we assume LSL is compatible if it responds to C000h
   1377					 ; Version detection is	unreliable across different LSL	implementations
   1378
   1379					 ; Check DOS version for UMB support
   1380	2AE1  B4 30			 mov	 ah, 30h
   1381	2AE3  CD 21			 int	 21h
   1382	2AE5  3C 05			 cmp	 al, 5
   1383	2AE7  73 03 E9 00B0		 jb	 DOSTooOld
   1384
   1385					 ; Print settings before hardware detection
   1386	2AEC  E8 0D02			 call	 PrintDetectionInfo
   1387
   1388					 ; Initialize hardware based on	mode
   1389	2AEF  80 3E 010Br 00		 cmp	 CfgData.Mode, 0
   1390	2AF4  74 10			 je	 InitSerial
   1391	2AF6  80 3E 010Br 01		 cmp	 CfgData.Mode, 1
   1392	2AFB  74 23			 je	 InitParallel
   1393	2AFD  80 3E 010Br 02		 cmp	 CfgData.Mode, 2
   1394	2B02  74 1C			 je	 InitParallel
   1395
   1396					 ; Invalid mode
   1397	2B04  F9			 stc
   1398	2B05  C3			 ret
   1399
   1400	2B06			     InitSerial:
   1401	2B06  E8 0103			 call	 InitSerialPort
   1402	2B09  73 03 E9 00BE		 jc	 InitError
   1403
   1404					 ; Debug: hardware init	completed
   1405	2B0E  80 3E 2768r 01		 cmp	 CmdDebug, 1
   1406	2B13  75 09			 jne	 SkipDbgHwInit
   1407	2B15  52			 push	 dx
   1408	2B16  BA 2168r			 lea	 dx, MsgDbgHwInit
   1409	2B19  B4 09			 mov	 ah, 09h
   1410	2B1B  CD 21			 int	 21h
   1411	2B1D  5A			 pop	 dx
   1412	2B1E			     SkipDbgHwInit:
   1413	2B1E  EB 08			 jmp	 HardwareInitDone
   1414
   1415	2B20			     InitParallel:
   1416	2B20  E8 0298			 call	 InitParallelPort
   1417	2B23  73 03 E9 00A4		 jc	 InitError
   1418
   1419	2B28			     HardwareInitDone:
   1420					 ; Try to allocate UMB
   1421	2B28  E8 02F7			 call	 AllocateUMB
   1422					 ; If UMB allocation failed, we're in conventional memory (already handled)
   1423
   1424					 ; Save	old interrupt vectors
   1425	2B2B  B8 352F			 mov	 ax, 352Fh
Turbo Assembler	 Version 4.1	    03/03/26 01:07:02	    Page 26
DCEMLID.ASM



   1426	2B2E  CD 21			 int	 21h
   1427	2B30  8C 06 014Er		 mov	 OldInt2F_Seg, es
   1428	2B34  89 1E 014Cr		 mov	 OldInt2F_Off, bx
   1429
   1430					 ; Hook	INT 2Fh
   1431	2B38  1E			 push	 ds
   1432	2B39  8C C8			 mov	 ax, cs
   1433	2B3B  8E D8			 mov	 ds, ax
   1434	2B3D  BA 31B3r			 lea	 dx, Int2FHandler
   1435	2B40  B8 252F			 mov	 ax, 252Fh
   1436	2B43  CD 21			 int	 21h
   1437	2B45  1F			 pop	 ds
   1438
   1439					 ; Debug: hooking IRQ
   1440	2B46  80 3E 2768r 01		 cmp	 CmdDebug, 1
   1441	2B4B  75 09			 jne	 SkipDbgHookIRQ
   1442	2B4D  52			 push	 dx
   1443	2B4E  BA 217Br			 lea	 dx, MsgDbgHookIRQ
   1444	2B51  B4 09			 mov	 ah, 09h
   1445	2B53  CD 21			 int	 21h
   1446	2B55  5A			 pop	 dx
   1447	2B56			     SkipDbgHookIRQ:
   1448
   1449					 ; Hook	hardware interrupt
   1450	2B56  E8 0320			 call	 HookHardwareInterrupt
   1451	2B59  72 71			 jc	 InitError
   1452
   1453					 ; Debug: print	OK
   1454	2B5B  80 3E 2768r 01		 cmp	 CmdDebug, 1
   1455	2B60  75 09			 jne	 SkipDbgIRQOK
   1456	2B62  52			 push	 dx
   1457	2B63  BA 214Cr			 lea	 dx, MsgDbgOK
   1458	2B66  B4 09			 mov	 ah, 09h
   1459	2B68  CD 21			 int	 21h
   1460	2B6A  5A			 pop	 dx
   1461	2B6B			     SkipDbgIRQOK:
   1462
   1463					 ; Debug: registering with LSL
   1464	2B6B  80 3E 2768r 01		 cmp	 CmdDebug, 1
   1465	2B70  75 09			 jne	 SkipDbgRegLSL
   1466	2B72  52			 push	 dx
   1467	2B73  BA 218Ar			 lea	 dx, MsgDbgRegLSL
   1468	2B76  B4 09			 mov	 ah, 09h
   1469	2B78  CD 21			 int	 21h
   1470	2B7A  5A			 pop	 dx
   1471	2B7B			     SkipDbgRegLSL:
   1472
   1473					 ; Register with LSL
   1474	2B7B  E8 0442			 call	 RegisterWithLSL
   1475	2B7E  72 6C			 jc	 InitErrorLSL
   1476
   1477					 ; Set driver loaded flag
   1478	2B80  C6 06 013Er 01		 mov	 DriverLoaded, 1
   1479
   1480					 ; Print success message
   1481	2B85  E8 0BB9			 call	 PrintInstallMessage
   1482
Turbo Assembler	 Version 4.1	    03/03/26 01:07:02	    Page 27
DCEMLID.ASM



   1483	2B88  F8			 clc
   1484	2B89  C3			 ret
   1485
   1486	2B8A			     AlreadyLoaded:
   1487	2B8A  BA 201Dr			 lea	 dx, MsgErrLoaded
   1488	2B8D  B4 09			 mov	 ah, 09h
   1489	2B8F  CD 21			 int	 21h
   1490	2B91  F9			 stc
   1491	2B92  C3			 ret
   1492
   1493	2B93			     LSLNotLoaded:
   1494	2B93  BA 1FA9r			 lea	 dx, MsgErrLSL
   1495	2B96  B4 09			 mov	 ah, 09h
   1496	2B98  CD 21			 int	 21h
   1497	2B9A  F9			 stc
   1498	2B9B  C3			 ret
   1499
   1500	2B9C			     DOSTooOld:
   1501	2B9C  BA 208Fr			 lea	 dx, MsgErrDOS
   1502	2B9F  B4 09			 mov	 ah, 09h
   1503	2BA1  CD 21			 int	 21h
   1504	2BA3  F9			 stc
   1505	2BA4  C3			 ret
   1506
   1507	2BA5			     LSLIncompat:
   1508	2BA5  BA 20C4r			 lea	 dx, MsgErrLSLVer
   1509	2BA8  B4 09			 mov	 ah, 09h
   1510	2BAA  CD 21			 int	 21h
   1511					 ; Print detected version (LSLVersion: AL=major, AH=minor)
   1512	2BAC  A1 0148r			 mov	 ax, LSLVersion
   1513	2BAF  50			 push	 ax
   1514	2BB0  32 E4			 xor	 ah, ah		     ; AL = Major
   1515	2BB2  E8 0CB3			 call	 PrintDecimal
   1516	2BB5  B2 2E			 mov	 dl, '.'
   1517	2BB7  B4 02			 mov	 ah, 02h
   1518	2BB9  CD 21			 int	 21h
   1519	2BBB  58			 pop	 ax
   1520	2BBC  8A C4			 mov	 al, ah		     ; Minor is	in AH
   1521	2BBE  32 E4			 xor	 ah, ah
   1522	2BC0  E8 0CA5			 call	 PrintDecimal
   1523	2BC3  BA 1F42r			 lea	 dx, MsgCRLF
   1524	2BC6  B4 09			 mov	 ah, 09h
   1525	2BC8  CD 21			 int	 21h
   1526	2BCA  F9			 stc
   1527	2BCB  C3			 ret
   1528
   1529	2BCC			     InitError:
   1530					 ; Restore interrupt vectors if	needed
   1531	2BCC  83 3E 014Cr 00		 cmp	 OldInt2F_Off, 0
   1532	2BD1  74 10			 je	 InitErrorNoRestore
   1533
   1534					 ; Load	both offset and	segment	BEFORE changing	DS
   1535	2BD3  8B 16 014Cr		 mov	 dx, OldInt2F_Off
   1536	2BD7  1E			 push	 ds
   1537	2BD8  A1 014Er			 mov	 ax, OldInt2F_Seg
   1538	2BDB  8E D8			 mov	 ds, ax
   1539	2BDD  B8 252F			 mov	 ax, 252Fh
Turbo Assembler	 Version 4.1	    03/03/26 01:07:02	    Page 28
DCEMLID.ASM



   1540	2BE0  CD 21			 int	 21h
   1541	2BE2  1F			 pop	 ds
   1542
   1543	2BE3			     InitErrorNoRestore:
   1544	2BE3  BA 205Dr			 lea	 dx, MsgErrPort
   1545	2BE6  B4 09			 mov	 ah, 09h
   1546	2BE8  CD 21			 int	 21h
   1547	2BEA  F9			 stc
   1548	2BEB  C3			 ret
   1549
   1550	2BEC			     InitErrorLSL:
   1551					 ; Restore interrupt vectors if	needed
   1552	2BEC  83 3E 014Cr 00		 cmp	 OldInt2F_Off, 0
   1553	2BF1  74 10			 je	 InitErrorLSLNoRestore
   1554
   1555	2BF3  8B 16 014Cr		 mov	 dx, OldInt2F_Off
   1556	2BF7  1E			 push	 ds
   1557	2BF8  A1 014Er			 mov	 ax, OldInt2F_Seg
   1558	2BFB  8E D8			 mov	 ds, ax
   1559	2BFD  B8 252F			 mov	 ax, 252Fh
   1560	2C00  CD 21			 int	 21h
   1561	2C02  1F			 pop	 ds
   1562
   1563	2C03			     InitErrorLSLNoRestore:
   1564	2C03  BA 21DEr			 lea	 dx, MsgErrLSLReg
   1565	2C06  B4 09			 mov	 ah, 09h
   1566	2C08  CD 21			 int	 21h
   1567	2C0A  F9			 stc
   1568	2C0B  C3			 ret
   1569	2C0C			     InstallDriver ENDP
   1570
   1571				     ;=============================================================================
   1572				     ; InitSerialPort -	Initialize UART	for serial communication
   1573				     ; Output: CF=1 on error
   1574				     ;=============================================================================
   1575
   1576	2C0C			     InitSerialPort PROC
   1577	2C0C  52			 push	 dx
   1578	2C0D  50			 push	 ax
   1579	2C0E  51			 push	 cx
   1580
   1581	2C0F  8B 16 010Cr		 mov	 dx, CfgData.Port
   1582
   1583					 ; === UART Detection using Line Control Register (LCR)	test ===
   1584					 ; The original	8250 does NOT have a scratch register (offset 7),
   1585					 ; so we use the LCR (offset 3)	instead	for reliable detection.
   1586					 ; Save	current	LCR, write test	patterns, then restore.
   1587	2C13  83 C2 03			 add	 dx, UART_LCR	     ; Line Control Register
   1588
   1589					 ; Debug: print	LCR port address
   1590	2C16  80 3E 2768r 01		 cmp	 CmdDebug, 1
   1591	2C1B  75 17			 jne	 SkipDbgLCR
   1592	2C1D  50			 push	 ax
   1593	2C1E  52			 push	 dx		     ; Save LCR	port address
   1594	2C1F  52			 push	 dx		     ; Will use	this for PrintHexWord
   1595	2C20  BA 2133r			 lea	 dx, MsgDbgLCR
   1596	2C23  B4 09			 mov	 ah, 09h
Turbo Assembler	 Version 4.1	    03/03/26 01:07:02	    Page 29
DCEMLID.ASM



   1597	2C25  CD 21			 int	 21h
   1598	2C27  58			 pop	 ax		     ; Get port	address	into AX	for printing
   1599	2C28  E8 0C0E			 call	 PrintHexWord
   1600	2C2B  BA 1F42r			 lea	 dx, MsgCRLF
   1601	2C2E  B4 09			 mov	 ah, 09h
   1602	2C30  CD 21			 int	 21h
   1603	2C32  5A			 pop	 dx		     ; Restore LCR port	address
   1604	2C33  58			 pop	 ax
   1605	2C34			     SkipDbgLCR:
   1606
   1607	2C34  EC			 in	 al, dx		     ; Save current LCR	value
   1608	2C35  8A E0			 mov	 ah, al		     ; Store in	AH
   1609
   1610					 ; Test	pattern	1
   1611	2C37  B0 1B			 mov	 al, 01Bh	     ; Test pattern 1 (8N1 + break)
   1612	2C39  EE			 out	 dx, al
   1613	2C3A  50			 push	 ax		     ; Save written value
   1614	2C3B  EC			 in	 al, dx
   1615	2C3C  8A D8			 mov	 bl, al		     ; Save raw	read
   1616	2C3E  24 7F			 and	 al, 07Fh	     ; Mask off	DLAB bit
   1617	2C40  8A F8			 mov	 bh, al		     ; Save masked read
   1618	2C42  58			 pop	 ax		     ; Restore written value
   1619
   1620					 ; Debug: print	test 1 results
   1621	2C43  80 3E 2768r 01		 cmp	 CmdDebug, 1
   1622	2C48  75 3A			 jne	 SkipDbgTest1
   1623	2C4A  50			 push	 ax
   1624	2C4B  53			 push	 bx
   1625	2C4C  52			 push	 dx
   1626	2C4D  BA 215Ar			 lea	 dx, MsgDbgTest1
   1627	2C50  B4 09			 mov	 ah, 09h
   1628	2C52  CD 21			 int	 21h
   1629	2C54  BA 213Dr			 lea	 dx, MsgDbgWrite
   1630	2C57  B4 09			 mov	 ah, 09h
   1631	2C59  CD 21			 int	 21h
   1632	2C5B  B0 1B			 mov	 al, 01Bh
   1633	2C5D  E8 0BE4			 call	 PrintHexByte
   1634	2C60  BA 2145r			 lea	 dx, MsgDbgRead
   1635	2C63  B4 09			 mov	 ah, 09h
   1636	2C65  CD 21			 int	 21h
   1637	2C67  5A			 pop	 dx
   1638	2C68  5B			 pop	 bx
   1639	2C69  53			 push	 bx
   1640	2C6A  52			 push	 dx
   1641	2C6B  8A C3			 mov	 al, bl		     ; Raw read	value
   1642	2C6D  E8 0BD4			 call	 PrintHexByte
   1643	2C70  B2 28			 mov	 dl, '('
   1644	2C72  B4 02			 mov	 ah, 02h
   1645	2C74  CD 21			 int	 21h
   1646	2C76  8A C7			 mov	 al, bh		     ; Masked value
   1647	2C78  E8 0BC9			 call	 PrintHexByte
   1648	2C7B  B2 29			 mov	 dl, ')'
   1649	2C7D  B4 02			 mov	 ah, 02h
   1650	2C7F  CD 21			 int	 21h
   1651	2C81  5A			 pop	 dx
   1652	2C82  5B			 pop	 bx
   1653	2C83  58			 pop	 ax
Turbo Assembler	 Version 4.1	    03/03/26 01:07:02	    Page 30
DCEMLID.ASM



   1654	2C84			     SkipDbgTest1:
   1655
   1656	2C84  80 FF 1B			 cmp	 bh, 01Bh
   1657	2C87  75 7A 90 90 90		 jne	 NoUARTFoundDbg
   1658
   1659					 ; Debug: print	OK
   1660	2C8C  80 3E 2768r 01		 cmp	 CmdDebug, 1
   1661	2C91  75 09			 jne	 SkipDbgOK1
   1662	2C93  52			 push	 dx
   1663	2C94  BA 214Cr			 lea	 dx, MsgDbgOK
   1664	2C97  B4 09			 mov	 ah, 09h
   1665	2C99  CD 21			 int	 21h
   1666	2C9B  5A			 pop	 dx
   1667	2C9C			     SkipDbgOK1:
   1668
   1669					 ; Test	pattern	2
   1670	2C9C  B0 03			 mov	 al, 003h	     ; Test pattern 2 (8N1)
   1671	2C9E  EE			 out	 dx, al
   1672	2C9F  50			 push	 ax
   1673	2CA0  EC			 in	 al, dx
   1674	2CA1  8A D8			 mov	 bl, al		     ; Save raw	read
   1675	2CA3  24 7F			 and	 al, 07Fh
   1676	2CA5  8A F8			 mov	 bh, al		     ; Save masked read
   1677	2CA7  58			 pop	 ax
   1678
   1679					 ; Debug: print	test 2 results
   1680	2CA8  80 3E 2768r 01		 cmp	 CmdDebug, 1
   1681	2CAD  75 3A			 jne	 SkipDbgTest2
   1682	2CAF  50			 push	 ax
   1683	2CB0  53			 push	 bx
   1684	2CB1  52			 push	 dx
   1685	2CB2  BA 2161r			 lea	 dx, MsgDbgTest2
   1686	2CB5  B4 09			 mov	 ah, 09h
   1687	2CB7  CD 21			 int	 21h
   1688	2CB9  BA 213Dr			 lea	 dx, MsgDbgWrite
   1689	2CBC  B4 09			 mov	 ah, 09h
   1690	2CBE  CD 21			 int	 21h
   1691	2CC0  B0 03			 mov	 al, 003h
   1692	2CC2  E8 0B7F			 call	 PrintHexByte
   1693	2CC5  BA 2145r			 lea	 dx, MsgDbgRead
   1694	2CC8  B4 09			 mov	 ah, 09h
   1695	2CCA  CD 21			 int	 21h
   1696	2CCC  5A			 pop	 dx
   1697	2CCD  5B			 pop	 bx
   1698	2CCE  53			 push	 bx
   1699	2CCF  52			 push	 dx
   1700	2CD0  8A C3			 mov	 al, bl
   1701	2CD2  E8 0B6F			 call	 PrintHexByte
   1702	2CD5  B2 28			 mov	 dl, '('
   1703	2CD7  B4 02			 mov	 ah, 02h
   1704	2CD9  CD 21			 int	 21h
   1705	2CDB  8A C7			 mov	 al, bh
   1706	2CDD  E8 0B64			 call	 PrintHexByte
   1707	2CE0  B2 29			 mov	 dl, ')'
   1708	2CE2  B4 02			 mov	 ah, 02h
   1709	2CE4  CD 21			 int	 21h
   1710	2CE6  5A			 pop	 dx
Turbo Assembler	 Version 4.1	    03/03/26 01:07:02	    Page 31
DCEMLID.ASM



   1711	2CE7  5B			 pop	 bx
   1712	2CE8  58			 pop	 ax
   1713	2CE9			     SkipDbgTest2:
   1714
   1715	2CE9  80 FF 03			 cmp	 bh, 003h
   1716	2CEC  75 15			 jne	 NoUARTFoundDbg
   1717
   1718					 ; Debug: print	OK
   1719	2CEE  80 3E 2768r 01		 cmp	 CmdDebug, 1
   1720	2CF3  75 09			 jne	 SkipDbgOK2
   1721	2CF5  52			 push	 dx
   1722	2CF6  BA 214Cr			 lea	 dx, MsgDbgOK
   1723	2CF9  B4 09			 mov	 ah, 09h
   1724	2CFB  CD 21			 int	 21h
   1725	2CFD  5A			 pop	 dx
   1726	2CFE			     SkipDbgOK2:
   1727
   1728					 ; Restore original LCR
   1729	2CFE  8A C4			 mov	 al, ah
   1730	2D00  EE			 out	 dx, al
   1731	2D01  EB 16			 jmp	 UARTDetected
   1732
   1733	2D03			     NoUARTFoundDbg:
   1734					 ; Debug: print	FAIL
   1735	2D03  80 3E 2768r 01		 cmp	 CmdDebug, 1
   1736	2D08  74 03 E9 00A9		 jne	 NoUARTFound
   1737	2D0D  52			 push	 dx
   1738	2D0E  BA 2152r			 lea	 dx, MsgDbgFAIL
   1739	2D11  B4 09			 mov	 ah, 09h
   1740	2D13  CD 21			 int	 21h
   1741	2D15  5A			 pop	 dx
   1742	2D16  E9 009D			 jmp	 NoUARTFound
   1743
   1744	2D19			     UARTDetected:
   1745
   1746					 ; UART	detected, continue with	initialization
   1747	2D19  8B 16 010Cr		 mov	 dx, CfgData.Port
   1748
   1749					 ; Detect 8250 vs 16550
   1750	2D1D  83 C2 02			 add	 dx, UART_FCR
   1751	2D20  B0 C7			 mov	 al, 0C7h	     ; Enable FIFO with	all flags
   1752	2D22  EE			 out	 dx, al
   1753
   1754					 ; Read	back IIR
   1755	2D23  EC			 in	 al, dx
   1756	2D24  24 C0			 and	 al, 0C0h	     ; Check bits 6-7
   1757	2D26  3C C0			 cmp	 al, 0C0h
   1758	2D28  74 18			 je	 Is16550
   1759
   1760					 ; It's	an 8250
   1761	2D2A  C6 06 011Ar 00		 mov	 CfgData.UARTType, 0
   1762
   1763					 ; Check if baud rate is too high for 8250 (compare low	word, high word	is 0 for valid rates)
   1764	2D2F  81 3E 010Er E100		 cmp	 word ptr CfgData.BaudRate, 57600
   1765	2D35  72 10			 jb	 UARTTypeOK
   1766
   1767					 ; Print warning
Turbo Assembler	 Version 4.1	    03/03/26 01:07:02	    Page 32
DCEMLID.ASM



   1768	2D37  52			 push	 dx
   1769	2D38  BA 1F45r			 lea	 dx, MsgWarn8250
   1770	2D3B  B4 09			 mov	 ah, 09h
   1771	2D3D  CD 21			 int	 21h
   1772	2D3F  5A			 pop	 dx
   1773	2D40  EB 05			 jmp	 UARTTypeOK
   1774
   1775	2D42			     Is16550:
   1776	2D42  C6 06 011Ar 01		 mov	 CfgData.UARTType, 1
   1777
   1778	2D47			     UARTTypeOK:
   1779					 ; Look	up divisor for baud rate from table (8086-compatible)
   1780	2D47  E8 0C93			 call	 LookupBaudDivisor
   1781					 ; BX now contains the divisor
   1782
   1783					 ; Set DLAB to access divisor latch
   1784	2D4A  8B 16 010Cr		 mov	 dx, CfgData.Port
   1785	2D4E  83 C2 03			 add	 dx, UART_LCR
   1786	2D51  B0 83			 mov	 al, LCR_DLAB OR LCR_8N1
   1787	2D53  EE			 out	 dx, al
   1788
   1789					 ; Set divisor
   1790	2D54  8B 16 010Cr		 mov	 dx, CfgData.Port
   1791	2D58  8A C3			 mov	 al, bl		     ; Low byte
   1792	2D5A  EE			 out	 dx, al
   1793	2D5B  42			 inc	 dx
   1794	2D5C  8A C7			 mov	 al, bh		     ; High byte
   1795	2D5E  EE			 out	 dx, al
   1796
   1797					 ; Clear DLAB, set 8N1
   1798	2D5F  8B 16 010Cr		 mov	 dx, CfgData.Port
   1799	2D63  83 C2 03			 add	 dx, UART_LCR
   1800	2D66  B0 03			 mov	 al, LCR_8N1
   1801	2D68  EE			 out	 dx, al
   1802
   1803					 ; Enable and configure	FIFO if	16550
   1804	2D69  80 3E 011Ar 01		 cmp	 CfgData.UARTType, 1
   1805	2D6E  75 0A			 jne	 NoFIFO
   1806
   1807	2D70  8B 16 010Cr		 mov	 dx, CfgData.Port
   1808	2D74  83 C2 02			 add	 dx, UART_FCR
   1809	2D77  B0 87			 mov	 al, FCR_ENABLE	OR FCR_CLEAR OR	FCR_TRIGGER_8
   1810	2D79  EE			 out	 dx, al
   1811
   1812	2D7A			     NoFIFO:
   1813					 ; Configure modem control
   1814	2D7A  8B 16 010Cr		 mov	 dx, CfgData.Port
   1815	2D7E  83 C2 04			 add	 dx, UART_MCR
   1816	2D81  B0 0B			 mov	 al, MCR_DTR OR	MCR_RTS	OR MCR_OUT2
   1817	2D83  EE			 out	 dx, al
   1818
   1819					 ; Enable interrupts
   1820	2D84  8B 16 010Cr		 mov	 dx, CfgData.Port
   1821	2D88  83 C2 01			 add	 dx, UART_IER
   1822	2D8B  B0 01			 mov	 al, 01h	     ; Enable received data interrupt
   1823	2D8D  EE			 out	 dx, al
   1824
Turbo Assembler	 Version 4.1	    03/03/26 01:07:02	    Page 33
DCEMLID.ASM



   1825					 ; Determine IRQ number	from port
   1826	2D8E  A1 010Cr			 mov	 ax, CfgData.Port
   1827	2D91  3D 03F8			 cmp	 ax, 3F8h
   1828	2D94  74 0F			 je	 SerialIRQ4
   1829	2D96  3D 02F8			 cmp	 ax, 2F8h
   1830	2D99  74 11			 je	 SerialIRQ3
   1831	2D9B  3D 03E8			 cmp	 ax, 3E8h
   1832	2D9E  74 05			 je	 SerialIRQ4
   1833	2DA0  3D 02E8			 cmp	 ax, 2E8h
   1834	2DA3  74 07			 je	 SerialIRQ3
   1835
   1836					 ; Default to IRQ4
   1837	2DA5			     SerialIRQ4:
   1838	2DA5  C6 06 0119r 04		 mov	 CfgData.IRQNum, 4
   1839	2DAA  EB 05			 jmp	 SerialIRQSet
   1840
   1841	2DAC			     SerialIRQ3:
   1842	2DAC  C6 06 0119r 03		 mov	 CfgData.IRQNum, 3
   1843
   1844	2DB1			     SerialIRQSet:
   1845	2DB1  F8			 clc
   1846	2DB2  59			 pop	 cx
   1847	2DB3  58			 pop	 ax
   1848	2DB4  5A			 pop	 dx
   1849	2DB5  C3			 ret
   1850
   1851	2DB6			     NoUARTFound:
   1852					 ; No UART detected at this port
   1853	2DB6  F9			 stc
   1854	2DB7  59			 pop	 cx
   1855	2DB8  58			 pop	 ax
   1856	2DB9  5A			 pop	 dx
   1857	2DBA  C3			 ret
   1858	2DBB			     InitSerialPort ENDP
   1859
   1860				     ;=============================================================================
   1861				     ; InitParallelPort	- Initialize parallel port (EPP	or PS/2)
   1862				     ; Output: CF=1 on error
   1863				     ;=============================================================================
   1864
   1865	2DBB			     InitParallelPort PROC
   1866	2DBB  52			 push	 dx
   1867	2DBC  50			 push	 ax
   1868	2DBD  51			 push	 cx
   1869
   1870	2DBE  8B 16 010Cr		 mov	 dx, CfgData.Port
   1871
   1872					 ; === Parallel	port detection using data register test	===
   1873					 ; Write test patterns and read	back
   1874	2DC2  B0 55			 mov	 al, 055h
   1875	2DC4  EE			 out	 dx, al
   1876	2DC5  EC			 in	 al, dx
   1877	2DC6  3C 55			 cmp	 al, 055h
   1878	2DC8  75 50			 jne	 NoLPTFound
   1879
   1880	2DCA  B0 AA			 mov	 al, 0AAh
   1881	2DCC  EE			 out	 dx, al
Turbo Assembler	 Version 4.1	    03/03/26 01:07:02	    Page 34
DCEMLID.ASM



   1882	2DCD  EC			 in	 al, dx
   1883	2DCE  3C AA			 cmp	 al, 0AAh
   1884	2DD0  75 48			 jne	 NoLPTFound
   1885
   1886					 ; Parallel port detected, continue with initialization
   1887
   1888					 ; Check for PAR8 mode
   1889	2DD2  80 3E 010Br 02		 cmp	 CfgData.Mode, 2
   1890	2DD7  75 1F			 jne	 Par4Mode
   1891
   1892					 ; Try to detect EPP capability
   1893	2DD9  81 C2 0402		 add	 dx, LPT_ECR
   1894	2DDD  EC			 in	 al, dx
   1895	2DDE  B1 05			 mov	 cl, 5
   1896	2DE0  D2 E8			 shr	 al, cl		     ; Get bits	5-7
   1897	2DE2  3C 01			 cmp	 al, 001b	     ; EPP 1.7
   1898	2DE4  74 0B			 je	 HasEPP
   1899	2DE6  3C 02			 cmp	 al, 010b	     ; EPP 1.9
   1900	2DE8  74 07			 je	 HasEPP
   1901
   1902					 ; No EPP, fallback to PS/2 bidirectional
   1903	2DEA  C6 06 011Br 01		 mov	 CfgData.ParMode, 1  ; PS/2 mode
   1904	2DEF  EB 0C			 jmp	 ParallelConfigDone
   1905
   1906	2DF1			     HasEPP:
   1907	2DF1  C6 06 011Br 00		 mov	 CfgData.ParMode, 0  ; EPP mode
   1908	2DF6  EB 05			 jmp	 ParallelConfigDone
   1909
   1910	2DF8			     Par4Mode:
   1911					 ; Standard SPP	4-bit mode
   1912	2DF8  C6 06 011Br 00		 mov	 CfgData.ParMode, 0
   1913
   1914	2DFD			     ParallelConfigDone:
   1915					 ; Initialize control register
   1916	2DFD  8B 16 010Cr		 mov	 dx, CfgData.Port
   1917	2E01  83 C2 02			 add	 dx, LPT_CONTROL
   1918	2E04  B0 0C			 mov	 al, LPT_CTRL_INIT OR LPT_CTRL_SELECT
   1919
   1920					 ; Add bidirectional bit for PS/2 mode
   1921	2E06  80 3E 011Br 01		 cmp	 CfgData.ParMode, 1
   1922	2E0B  75 02			 jne	 NoBidir
   1923	2E0D  0C 20			 or	 al, LPT_CTRL_BIDIR
   1924
   1925	2E0F			     NoBidir:
   1926	2E0F  EE			 out	 dx, al
   1927
   1928					 ; Parallel typically uses IRQ7
   1929	2E10  C6 06 0119r 07		 mov	 CfgData.IRQNum, 7
   1930
   1931	2E15  F8			 clc
   1932	2E16  59			 pop	 cx
   1933	2E17  58			 pop	 ax
   1934	2E18  5A			 pop	 dx
   1935	2E19  C3			 ret
   1936
   1937	2E1A			     NoLPTFound:
   1938					 ; No parallel port detected at	this port
Turbo Assembler	 Version 4.1	    03/03/26 01:07:02	    Page 35
DCEMLID.ASM



   1939	2E1A  F9			 stc
   1940	2E1B  59			 pop	 cx
   1941	2E1C  58			 pop	 ax
   1942	2E1D  5A			 pop	 dx
   1943	2E1E  C3			 ret
   1944	2E1F			     InitParallelPort ENDP
   1945
   1946				     ;=============================================================================
   1947				     ; AllocateUMB - Try to allocate memory in UMB
   1948				     ;=============================================================================
   1949
   1950	2E1F  00		     UMBAllocated    DB	0
   1951	2E20  0000		     MemorySegment   DW	0
   1952
   1953	2E22			     AllocateUMB PROC
   1954	2E22  50			 push	 ax
   1955	2E23  53			 push	 bx
   1956	2E24  51			 push	 cx
   1957
   1958					 ; Save	current	UMB link state
   1959	2E25  B8 5802			 mov	 ax, 5802h
   1960	2E28  CD 21			 int	 21h
   1961	2E2A  50			 push	 ax		     ; Save for	restoration
   1962
   1963					 ; Enable UMB chain
   1964	2E2B  B8 5803			 mov	 ax, 5803h
   1965	2E2E  BB 0001			 mov	 bx, 1
   1966	2E31  CD 21			 int	 21h
   1967
   1968					 ; Calculate memory needed in paragraphs
   1969	2E33  BB 390A			 mov	 bx, ResidentSize
   1970	2E36  83 C3 0F			 add	 bx, 15
   1971	2E39  B1 04			 mov	 cl, 4
   1972	2E3B  D3 EB			 shr	 bx, cl
   1973
   1974					 ; Try to allocate high	memory
   1975	2E3D  B4 48			 mov	 ah, 48h
   1976	2E3F  CD 21			 int	 21h
   1977	2E41  73 14			 jnc	 UMBSuccess
   1978
   1979					 ; UMB allocation failed, restore link state
   1980	2E43  58			 pop	 ax
   1981	2E44  8B D8			 mov	 bx, ax
   1982	2E46  B8 5803			 mov	 ax, 5803h
   1983	2E49  CD 21			 int	 21h
   1984
   1985					 ; We'll use conventional memory (already allocated by DOS)
   1986	2E4B  8C C8			 mov	 ax, cs
   1987	2E4D  A3 2E20r			 mov	 MemorySegment,	ax
   1988	2E50  C6 06 2E1Fr 00		 mov	 UMBAllocated, 0
   1989	2E55  EB 1E			 jmp	 AllocUMBDone
   1990
   1991	2E57			     UMBSuccess:
   1992	2E57  59			 pop	 cx		     ; Discard saved link state
   1993	2E58  A3 2E20r			 mov	 MemorySegment,	ax
   1994	2E5B  C6 06 2E1Fr 01		 mov	 UMBAllocated, 1
   1995
Turbo Assembler	 Version 4.1	    03/03/26 01:07:02	    Page 36
DCEMLID.ASM



   1996					 ; Copy	code to	UMB
   1997	2E60  1E			 push	 ds
   1998	2E61  06			 push	 es
   1999	2E62  8C C8			 mov	 ax, cs
   2000	2E64  8E D8			 mov	 ds, ax
   2001	2E66  8E 06 2E20r		 mov	 es, MemorySegment
   2002	2E6A  33 F6			 xor	 si, si
   2003	2E6C  33 FF			 xor	 di, di
   2004	2E6E  B9 390A			 mov	 cx, ResidentSize
   2005	2E71  F3> A4			 rep	 movsb
   2006	2E73  07			 pop	 es
   2007	2E74  1F			 pop	 ds
   2008
   2009	2E75			     AllocUMBDone:
   2010	2E75  59			 pop	 cx
   2011	2E76  5B			 pop	 bx
   2012	2E77  58			 pop	 ax
   2013	2E78  C3			 ret
   2014	2E79			     AllocateUMB ENDP
   2015
   2016				     ;=============================================================================
   2017				     ; HookHardwareInterrupt - Hook the	hardware IRQ
   2018				     ; Output: CF=1 on error
   2019				     ;=============================================================================
   2020
   2021	2E79			     HookHardwareInterrupt PROC
   2022	2E79  50			 push	 ax
   2023	2E7A  53			 push	 bx
   2024	2E7B  52			 push	 dx
   2025	2E7C  1E			 push	 ds
   2026	2E7D  06			 push	 es
   2027
   2028					 ; Calculate interrupt vector from IRQ number
   2029	2E7E  A0 0119r			 mov	 al, CfgData.IRQNum
   2030	2E81  3C 08			 cmp	 al, 8
   2031	2E83  72 06			 jb	 IRQBelow8
   2032
   2033					 ; IRQ 8-15 -> INT 70h-77h
   2034	2E85  2C 08			 sub	 al, 8
   2035	2E87  04 70			 add	 al, 70h
   2036	2E89  EB 02			 jmp	 HookIRQ
   2037
   2038	2E8B			     IRQBelow8:
   2039					 ; IRQ 0-7 -> INT 08h-0Fh
   2040	2E8B  04 08			 add	 al, 08h
   2041
   2042	2E8D			     HookIRQ:
   2043	2E8D  8A D8			 mov	 bl, al		     ; Save interrupt number
   2044
   2045					 ; Get old vector
   2046	2E8F  B4 35			 mov	 ah, 35h
   2047	2E91  CD 21			 int	 21h
   2048	2E93  8C 06 0152r		 mov	 OldHwInt_Seg, es
   2049	2E97  89 1E 0150r		 mov	 OldHwInt_Off, bx
   2050
   2051					 ; Set new vector
   2052	2E9B  1E			 push	 ds
Turbo Assembler	 Version 4.1	    03/03/26 01:07:02	    Page 37
DCEMLID.ASM



   2053	2E9C  8C C8			 mov	 ax, cs
   2054	2E9E  8E D8			 mov	 ds, ax
   2055
   2056	2EA0  80 3E 010Br 00		 cmp	 CfgData.Mode, 0
   2057	2EA5  74 05			 je	 HookSerial
   2058
   2059	2EA7  BA 323Fr			 lea	 dx, ParallelISR
   2060	2EAA  EB 03			 jmp	 SetVector
   2061
   2062	2EAC			     HookSerial:
   2063	2EAC  BA 31D0r			 lea	 dx, SerialISR
   2064
   2065	2EAF			     SetVector:
   2066	2EAF  8A C3			 mov	 al, bl
   2067	2EB1  B4 25			 mov	 ah, 25h
   2068	2EB3  CD 21			 int	 21h
   2069	2EB5  1F			 pop	 ds
   2070
   2071					 ; Enable IRQ at PIC
   2072	2EB6  A0 0119r			 mov	 al, CfgData.IRQNum
   2073	2EB9  3C 08			 cmp	 al, 8
   2074	2EBB  72 12			 jb	 EnablePIC1
   2075
   2076					 ; Enable on secondary PIC
   2077	2EBD  2C 08			 sub	 al, 8
   2078	2EBF  8A C8			 mov	 cl, al
   2079	2EC1  B0 01			 mov	 al, 1
   2080	2EC3  D2 E0			 shl	 al, cl
   2081	2EC5  F6 D0			 not	 al
   2082
   2083	2EC7  E4 A1			 in	 al, 0A1h	     ; Read PIC2 mask
   2084	2EC9  22 C0			 and	 al, al		     ; Clear the bit
   2085	2ECB  E6 A1			 out	 0A1h, al
   2086	2ECD  EB 0E			 jmp	 EnableDone
   2087
   2088	2ECF			     EnablePIC1:
   2089	2ECF  8A C8			 mov	 cl, al
   2090	2ED1  B0 01			 mov	 al, 1
   2091	2ED3  D2 E0			 shl	 al, cl
   2092	2ED5  F6 D0			 not	 al
   2093
   2094	2ED7  E4 21			 in	 al, 021h	     ; Read PIC1 mask
   2095	2ED9  22 C0			 and	 al, al
   2096	2EDB  E6 21			 out	 021h, al
   2097
   2098	2EDD			     EnableDone:
   2099	2EDD  F8			 clc
   2100	2EDE  07			 pop	 es
   2101	2EDF  1F			 pop	 ds
   2102	2EE0  5A			 pop	 dx
   2103	2EE1  5B			 pop	 bx
   2104	2EE2  58			 pop	 ax
   2105	2EE3  C3			 ret
   2106	2EE4			     HookHardwareInterrupt ENDP
   2107
   2108				     ;=============================================================================
   2109				     ; RegisterWithLSL - Register MLID with Link Support Layer
Turbo Assembler	 Version 4.1	    03/03/26 01:07:02	    Page 38
DCEMLID.ASM



   2110				     ; Output: CF=1 on error
   2111				     ;=============================================================================
   2112
   2113				     ; MLID Configuration Table	for ODI	2.x (LSL 2.14) - Table 03002
   2114				     ; This is the full	official ODI MLID configuration	table format
   2115	*EE4			     MLIDConfig	STRUC
   2116	*000  01*(1A*(??))		 Signature		 DB 26 DUP(?)	 ; 00h:	'HardwareDriverMLID	   ' (8	spaces)
   2117	*01A  01*(??)			 MConfigTableMajorVer	 DB ?		 ; 1Ah:	Configuration table major version
   2118	*01B  01*(??)			 MConfigTableMinorVer	 DB ?		 ; 1Bh:	Configuration table minor version
   2119	*01C  01*(06*(??))		 NodeAddress		 DB 6 DUP(?)	 ; 1Ch:	6-byte node address
   2120	*022  01*(????)			 ModeFlags		 DW ?		 ; 22h:	Mode flags
   2121	*024  01*(????)			 BoardNumber		 DW ?		 ; 24h:	Board number (filled by	LSL)
   2122	*026  01*(????)			 BoardInstance		 DW ?		 ; 26h:	Board instance
   2123	*028  01*(????)			 MaxDataSize		 DW ?		 ; 28h:	Maximum	packet size
   2124	*02A  01*(????)			 BestDataSize		 DW ?		 ; 2Ah:	Best data size
   2125	*02C  01*(????)			 WorstDataSize		 DW ?		 ; 2Ch:	Worst data size
   2126	*02E  01*(????????)		 NICLongName		 DD ?		 ; 2Eh:	Far ptr	to counted NUL-term long name
   2127	*032  01*(????????)		 NICShortName		 DD ?		 ; 32h:	Far ptr	to counted NUL-term short name
   2128	*036  01*(????????)		 FrameMediaType		 DD ?		 ; 36h:	Far ptr	to frame/media type string
   2129	*03A  01*(????)			 Reserved1		 DW ?		 ; 3Ah:	Reserved (0000h)
   2130	*03C  01*(????)			 FrameTypeID		 DW ?		 ; 3Ch:	Frame type ID
   2131	*03E  01*(????)			 TransportTime		 DW ?		 ; 3Eh:	Transport time (ms)
   2132	*040  01*(????????)		 SourceRouteHandler	 DD ?		 ; 40h:	Far ptr	to source route	handler
   2133	*044  01*(????)			 LookAheadSize		 DW ?		 ; 44h:	Lookahead size
   2134	*046  01*(????)			 LineSpeed		 DW ?		 ; 46h:	Line speed (Mbps or Kbps+8000h)
   2135	*048  01*(????)			 QueueDepth		 DW ?		 ; 48h:	Queue depth
   2136	*04A  01*(06*(??))		 Reserved2		 DB 6 DUP(?)	 ; 4Ah:	Reserved
   2137	*050  01*(??)			 DriverMajorVer		 DB ?		 ; 50h:	Driver major version
   2138	*051  01*(??)			 DriverMinorVer		 DB ?		 ; 51h:	Driver minor version
   2139	*052  01*(????)			 BusMulticastFlags	 DW ?		 ; 52h:	Bus/multicast flags
   2140	*054  01*(????)			 SendRetries		 DW ?		 ; 54h:	Send retries
   2141	*056  01*(????????)		 ConfigTableLink	 DD ?		 ; 56h:	Config table link
   2142	*05A  01*(????)			 SharingFlags		 DW ?		 ; 5Ah:	MLID sharing flags
   2143	*05C  01*(????)			 SlotNumber		 DW ?		 ; 5Ch:	Slot number
   2144	*05E  01*(????)			 IOAddr1		 DW ?		 ; 5Eh:	I/O address 1
   2145	*060  01*(????)			 IORange1		 DW ?		 ; 60h:	I/O range 1
   2146	*062  01*(????)			 IOAddr2		 DW ?		 ; 62h:	I/O address 2
   2147	*064  01*(????)			 IORange2		 DW ?		 ; 64h:	I/O range 2
   2148	*066  01*(????????)		 MemAddr1		 DD ?		 ; 66h:	Memory address 1
   2149	*06A  01*(????)			 MemSize1		 DW ?		 ; 6Ah:	Memory size 1
   2150	*06C  01*(????????)		 MemAddr2		 DD ?		 ; 6Ch:	Memory address 2
   2151	*070  01*(????)			 MemSize2		 DW ?		 ; 70h:	Memory size 2
   2152	*072  01*(??)			 IRQLine1		 DB ?		 ; 72h:	Interrupt line 1
   2153	*073  01*(??)			 IRQLine2		 DB ?		 ; 73h:	Interrupt line 2
   2154	*074  01*(??)			 DMALine1		 DB ?		 ; 74h:	DMA line 1
   2155	*075  01*(??)			 DMALine2		 DB ?		 ; 75h:	DMA line 2
   2156	*076			     MLIDConfig	ENDS
   2157
   2158				     ; LSL Information Block returned from registration	- Table	02991
   2159	*EE4			     LSLInfoBlock STRUC
   2160	*000  01*(????????)		 LSLEntryPoint		 DD ?		 ; 00h:	Entry point (BX=function 00h-11h)
   2161	*004  01*(????)			 LSLInfo1		 DW ?		 ; 04h:	???
   2162	*006  01*(????)			 LSLInfo2		 DW ?		 ; 06h:	???
   2163	*008			     LSLInfoBlock ENDS
   2164
   2165				     ; MLID Info Block for LSL registration - Table 02990
   2166				     ; This wrapper is required	for RegisterMLID (BX=0001h)
Turbo Assembler	 Version 4.1	    03/03/26 01:07:02	    Page 39
DCEMLID.ASM



   2167				     ; ES:SI must point	to this	structure, NOT directly	to the config table
   2168	*EE4			     MLIDInfoBlock STRUC
   2169	*000  01*(????????)		 MIBS_SendEntry		 DD ?		 ; 00h:	Far ptr	to MLID	Send handler
   2170	*004  01*(????????)		 MIBS_ControlEntry	 DD ?		 ; 04h:	Far ptr	to MLID	Control	handler
   2171	*008  01*(????????)		 MIBS_ConfigTable	 DD ?		 ; 08h:	Far ptr	to MLID	Config table
   2172	*00C			     MLIDInfoBlock ENDS
   2173
   2174				     ; Interface Function Table	for ODI	2.x
   2175	*EE4			     MLIDFuncTable STRUC
   2176	*000  01*(????????)		 GetStatistics		 DD ?
   2177	*004  01*(????????)		 AddMulticast		 DD ?
   2178	*008  01*(????????)		 DeleteMulticast	 DD ?
   2179	*00C  01*(????????)		 MLIDShutdown		 DD ?
   2180	*010  01*(????????)		 MLIDReset		 DD ?
   2181	*014  01*(03*(????????))	 Reserved		 DD 3 DUP(?)
   2182	*020			     MLIDFuncTable ENDS
   2183
   2184				     ; String data for registration - ODI uses "counted	NUL-terminated"	strings
   2185				     ; Format: length byte, string chars, NUL terminator
   2186	2EE4  17 44 43 45 4D 4C	49+  NICLongNameStr	 DB 23,'DCEMLID	Serial/Parallel',0
   2187	      44 20 53 65 72 69	61+
   2188	      6C 2F 50 61 72 61	6C+
   2189	      6C 65 6C 00
   2190	2EFD  07 44 43 45 4D 4C	49+  NICShortNameStr	 DB 7,'DCEMLID',0
   2191	      44 00
   2192	2F06  0E 45 74 68 65 72	6E+  FrameMediaTypeStr	 DB 14,'Ethernet_802.2',0  ; Frame/media type (14 chars)
   2193	      65 74 5F 38 30 32	2E+
   2194	      32 00
   2195
   2196				     ; LSL info	block buffer (filled by	LSL on registration)
   2197	2F16  08*(??)		     LSLInfoBuf		 LSLInfoBlock <>
   2198
   2199				     ; MLID Info Block for registration	(ES:SI points here)
   2200	2F1E  0C*(??)		     MLIDInfoBlockData	 MLIDInfoBlock <>
   2201
   2202				     ; Function	table
   2203	2F2A  20*(??)		     MLIDFunctions   MLIDFuncTable <>
   2204
   2205				     ; MLID Configuration Table	- initialized with signature
   2206				     ; Note: '>' is default initializer	followed by per-field values
   2207	2F4A  48 61 72 64 77 61	72+  MLIDConfigTable MLIDConfig	<'HardwareDriverMLID	    ', 01h, 00h>
   2208	      65 44 72 69 76 65	72+
   2209	      4D 4C 49 44 20 20	20+
   2210	      20 20 20 20 20 01	00+
   2211	      5A*(??)
   2212
   2213	2FC0			     RegisterWithLSL PROC
   2214	2FC0  50			 push	 ax
   2215	2FC1  53			 push	 bx
   2216	2FC2  51			 push	 cx
   2217	2FC3  52			 push	 dx
   2218	2FC4  06			 push	 es
   2219	2FC5  57			 push	 di
   2220	2FC6  56			 push	 si
   2221
   2222					 ; Fill	in configuration table
   2223					 ; Copy	node address
Turbo Assembler	 Version 4.1	    03/03/26 01:07:02	    Page 40
DCEMLID.ASM



   2224	2FC7  1E			 push	 ds
   2225	2FC8  07			 pop	 es
   2226	2FC9  BE 0113r			 lea	 si, CfgData.MacAddr
   2227	2FCC  BF 2F66r			 lea	 di, MLIDConfigTable.NodeAddress
   2228	2FCF  B9 0006			 mov	 cx, 6
   2229	2FD2  F3> A4			 rep	 movsb
   2230
   2231					 ; Set mode flags (bit 0 = RealDriverBit, always 1)
   2232	2FD4  C7 06 2F6Cr 0001		 mov	 MLIDConfigTable.ModeFlags, 0001h
   2233
   2234					 ; Board instance from config
   2235	2FDA  A1 011Cr			 mov	 ax, CfgData.BoardNum
   2236	2FDD  A3 2F70r			 mov	 MLIDConfigTable.BoardInstance,	ax
   2237
   2238					 ; Packet sizes
   2239	2FE0  C7 06 2F72r 0240		 mov	 MLIDConfigTable.MaxDataSize, MTU_SIZE
   2240	2FE6  C7 06 2F74r 0240		 mov	 MLIDConfigTable.BestDataSize, MTU_SIZE
   2241	2FEC  C7 06 2F76r 0040		 mov	 MLIDConfigTable.WorstDataSize,	64
   2242
   2243					 ; Set string pointers (counted	NUL-terminated strings)
   2244	2FF2  8C C8			 mov	 ax, cs
   2245	2FF4  A3 2F7Ar			 mov	 word ptr MLIDConfigTable.NICLongName[2], ax
   2246	2FF7  BB 2EE4r			 lea	 bx, NICLongNameStr
   2247	2FFA  89 1E 2F78r		 mov	 word ptr MLIDConfigTable.NICLongName[0], bx
   2248
   2249	2FFE  A3 2F7Er			 mov	 word ptr MLIDConfigTable.NICShortName[2], ax
   2250	3001  BB 2EFDr			 lea	 bx, NICShortNameStr
   2251	3004  89 1E 2F7Cr		 mov	 word ptr MLIDConfigTable.NICShortName[0], bx
   2252
   2253	3008  A3 2F82r			 mov	 word ptr MLIDConfigTable.FrameMediaType[2], ax
   2254	300B  BB 2F06r			 lea	 bx, FrameMediaTypeStr
   2255	300E  89 1E 2F80r		 mov	 word ptr MLIDConfigTable.FrameMediaType[0], bx
   2256
   2257					 ; Reserved field
   2258	3012  C7 06 2F84r 0000		 mov	 MLIDConfigTable.Reserved1, 0
   2259
   2260					 ; Frame type (Ethernet_802.2 =	0005h, default for NetWare 3.12+)
   2261	3018  C7 06 2F86r 0005		 mov	 MLIDConfigTable.FrameTypeID, 0005h
   2262
   2263					 ; Transport time, line	speed
   2264	301E  C7 06 2F88r 0001		 mov	 MLIDConfigTable.TransportTime,	1
   2265	3024  C7 06 2F90r 8073		 mov	 MLIDConfigTable.LineSpeed, 8000h + 115	 ; 115 Kbps (high bit =	Kbps)
   2266	302A  C7 06 2F8Er 0040		 mov	 MLIDConfigTable.LookAheadSize,	64
   2267	3030  C7 06 2F92r 0004		 mov	 MLIDConfigTable.QueueDepth, 4
   2268
   2269					 ; No source route handler
   2270	3036  C7 06 2F8Ar 0000		 mov	 word ptr MLIDConfigTable.SourceRouteHandler[0], 0
   2271	303C  C7 06 2F8Cr 0000		 mov	 word ptr MLIDConfigTable.SourceRouteHandler[2], 0
   2272
   2273					 ; Clear reserved bytes
   2274	3042  BF 2F94r			 lea	 di, MLIDConfigTable.Reserved2
   2275	3045  B9 0006			 mov	 cx, 6
   2276	3048  32 C0			 xor	 al, al
   2277	304A  F3> AA			 rep	 stosb
   2278
   2279					 ; Driver version
   2280	304C  C6 06 2F9Ar 01		 mov	 MLIDConfigTable.DriverMajorVer, 1
Turbo Assembler	 Version 4.1	    03/03/26 01:07:02	    Page 41
DCEMLID.ASM



   2281	3051  C6 06 2F9Br 00		 mov	 MLIDConfigTable.DriverMinorVer, 0
   2282
   2283					 ; Bus/multicast flags (ISA card)
   2284	3056  C7 06 2F9Cr 0002		 mov	 MLIDConfigTable.BusMulticastFlags, 0002h
   2285
   2286					 ; Send	retries
   2287	305C  C7 06 2F9Er 0003		 mov	 MLIDConfigTable.SendRetries, 3
   2288
   2289					 ; Config table	link (none)
   2290	3062  C7 06 2FA0r 0000		 mov	 word ptr MLIDConfigTable.ConfigTableLink[0], 0
   2291	3068  C7 06 2FA2r 0000		 mov	 word ptr MLIDConfigTable.ConfigTableLink[2], 0
   2292
   2293					 ; Sharing flags
   2294	306E  C7 06 2FA4r 0000		 mov	 MLIDConfigTable.SharingFlags, 0
   2295
   2296					 ; Slot	number (N/A)
   2297	3074  C7 06 2FA6r 0000		 mov	 MLIDConfigTable.SlotNumber, 0
   2298
   2299					 ; I/O addresses from config
   2300	307A  A1 010Cr			 mov	 ax, CfgData.Port
   2301	307D  A3 2FA8r			 mov	 MLIDConfigTable.IOAddr1, ax
   2302	3080  C7 06 2FAAr 0008		 mov	 MLIDConfigTable.IORange1, 8	     ; 8 bytes for COM port
   2303	3086  C7 06 2FACr 0000		 mov	 MLIDConfigTable.IOAddr2, 0
   2304	308C  C7 06 2FAEr 0000		 mov	 MLIDConfigTable.IORange2, 0
   2305
   2306					 ; Memory addresses (none)
   2307	3092  C7 06 2FB0r 0000		 mov	 word ptr MLIDConfigTable.MemAddr1[0], 0
   2308	3098  C7 06 2FB2r 0000		 mov	 word ptr MLIDConfigTable.MemAddr1[2], 0
   2309	309E  C7 06 2FB4r 0000		 mov	 MLIDConfigTable.MemSize1, 0
   2310	30A4  C7 06 2FB6r 0000		 mov	 word ptr MLIDConfigTable.MemAddr2[0], 0
   2311	30AA  C7 06 2FB8r 0000		 mov	 word ptr MLIDConfigTable.MemAddr2[2], 0
   2312	30B0  C7 06 2FBAr 0000		 mov	 MLIDConfigTable.MemSize2, 0
   2313
   2314					 ; IRQ and DMA
   2315	30B6  A0 0119r			 mov	 al, CfgData.IRQNum
   2316	30B9  A2 2FBCr			 mov	 MLIDConfigTable.IRQLine1, al
   2317	30BC  C6 06 2FBDr 00		 mov	 MLIDConfigTable.IRQLine2, 0
   2318	30C1  C6 06 2FBEr 00		 mov	 MLIDConfigTable.DMALine1, 0
   2319	30C6  C6 06 2FBFr 00		 mov	 MLIDConfigTable.DMALine2, 0
   2320
   2321					 ; Set up interface function table
   2322	30CB  8C 0E 2F2Cr		 mov	 word ptr MLIDFunctions.GetStatistics[2], cs
   2323	30CF  BB 3188r			 lea	 bx, MLIDGetStats
   2324	30D2  89 1E 2F2Ar		 mov	 word ptr MLIDFunctions.GetStatistics[0], bx
   2325
   2326	30D6  8C 0E 2F30r		 mov	 word ptr MLIDFunctions.AddMulticast[2], cs
   2327	30DA  BB 3190r			 lea	 bx, MLIDAddMulticast
   2328	30DD  89 1E 2F2Er		 mov	 word ptr MLIDFunctions.AddMulticast[0], bx
   2329
   2330	30E1  8C 0E 2F34r		 mov	 word ptr MLIDFunctions.DeleteMulticast[2], cs
   2331	30E5  BB 3194r			 lea	 bx, MLIDDelMulticast
   2332	30E8  89 1E 2F32r		 mov	 word ptr MLIDFunctions.DeleteMulticast[0], bx
   2333
   2334	30EC  8C 0E 2F38r		 mov	 word ptr MLIDFunctions.MLIDShutdown[2], cs
   2335	30F0  BB 3198r			 lea	 bx, MLIDShutdownProc
   2336	30F3  89 1E 2F36r		 mov	 word ptr MLIDFunctions.MLIDShutdown[0], bx
   2337
Turbo Assembler	 Version 4.1	    03/03/26 01:07:02	    Page 42
DCEMLID.ASM



   2338	30F7  8C 0E 2F3Cr		 mov	 word ptr MLIDFunctions.MLIDReset[2], cs
   2339	30FB  BB 31A0r			 lea	 bx, MLIDResetProc
   2340	30FE  89 1E 2F3Ar		 mov	 word ptr MLIDFunctions.MLIDReset[0], bx
   2341
   2342					 ; Initialize MLIDInfoBlockData	with function pointers and config table
   2343	3102  C7 06 2F1Er 3449r		 mov	 word ptr MLIDInfoBlockData.MIBS_SendEntry[0], OFFSET MLIDTransmitHandler
   2344	3108  8C 0E 2F20r		 mov	 word ptr MLIDInfoBlockData.MIBS_SendEntry[2], cs
   2345	310C  C7 06 2F22r 36D6r		 mov	 word ptr MLIDInfoBlockData.MIBS_ControlEntry[0], OFFSET MLIDControlHandler
   2346	3112  8C 0E 2F24r		 mov	 word ptr MLIDInfoBlockData.MIBS_ControlEntry[2], cs
   2347	3116  C7 06 2F26r 2F4Ar		 mov	 word ptr MLIDInfoBlockData.MIBS_ConfigTable[0], OFFSET	MLIDConfigTable
   2348	311C  8C 0E 2F28r		 mov	 word ptr MLIDInfoBlockData.MIBS_ConfigTable[2], cs
   2349
   2350					 ; Register with LSL via entry point
   2351					 ; LSL 2.x calling convention (Table 02986, 02990):
   2352					 ; BX =	function code (0001h = RegisterMLID)
   2353					 ; ES:SI = pointer to MLIDInfoBlock (SendEntry,	ControlEntry, ConfigTable)
   2354					 ; DS:DI = buffer for LSL information block (Table 02991)
   2355					 ; Returns: AX = 0 on success, non-zero	on error
   2356					 ;	    BX = board number assigned by LSL
   2357	3120  1E			 push	 ds
   2358	3121  07			 pop	 es
   2359	3122  BE 2F1Er			 lea	 si, MLIDInfoBlockData	 ; Point to info block wrapper,	NOT config table
   2360	3125  BF 2F16r			 lea	 di, LSLInfoBuf
   2361
   2362					 ; Debug: print	function call info
   2363	3128  80 3E 2768r 01		 cmp	 CmdDebug, 1
   2364	312D  75 09			 jne	 SkipDbgCallLSL
   2365	312F  52			 push	 dx
   2366	3130  BA 21C0r			 lea	 dx, MsgDbgCallLSL
   2367	3133  B4 09			 mov	 ah, 09h
   2368	3135  CD 21			 int	 21h
   2369	3137  5A			 pop	 dx
   2370	3138			     SkipDbgCallLSL:
   2371
   2372	3138  BB 0001			 mov	 bx, 0001h		 ; Function 0001h: RegisterMLID	(LSL 2.x)
   2373	313B  FF 1E 0144r		 call	 dword ptr [LSLEntryOff]
   2374
   2375					 ; Check return	status
   2376	313F  3D 0000			 cmp	 ax, 0
   2377	3142  74 23			 je	 RegisterOK
   2378
   2379					 ; Debug: print	failure	and return code
   2380	3144  50			 push	 ax		     ; Save return code
   2381	3145  80 3E 2768r 01		 cmp	 CmdDebug, 1
   2382	314A  75 17			 jne	 SkipDbgLSLFail
   2383	314C  52			 push	 dx
   2384	314D  BA 21A2r			 lea	 dx, MsgDbgLSLFail
   2385	3150  B4 09			 mov	 ah, 09h
   2386	3152  CD 21			 int	 21h
   2387	3154  5A			 pop	 dx
   2388	3155  58			 pop	 ax
   2389	3156  50			 push	 ax
   2390	3157  E8 06DF			 call	 PrintHexWord
   2391	315A  52			 push	 dx
   2392	315B  BA 21AFr			 lea	 dx, MsgDbgLSLRet
   2393	315E  B4 09			 mov	 ah, 09h
   2394	3160  CD 21			 int	 21h
Turbo Assembler	 Version 4.1	    03/03/26 01:07:02	    Page 43
DCEMLID.ASM



   2395	3162  5A			 pop	 dx
   2396	3163			     SkipDbgLSLFail:
   2397	3163  58			 pop	 ax
   2398	3164  F9			 stc
   2399	3165  EB 19			 jmp	 RegisterDone
   2400
   2401	3167			     RegisterOK:
   2402					 ; Save	board number assigned by LSL (returned in BX)
   2403	3167  89 1E 2F6Er		 mov	 MLIDConfigTable.BoardNumber, bx
   2404	316B  89 1E 014Ar		 mov	 LSLBoardNum, bx
   2405
   2406					 ; Debug: print	OK
   2407	316F  80 3E 2768r 01		 cmp	 CmdDebug, 1
   2408	3174  75 09			 jne	 SkipDbgLSLOK
   2409	3176  52			 push	 dx
   2410	3177  BA 214Cr			 lea	 dx, MsgDbgOK
   2411	317A  B4 09			 mov	 ah, 09h
   2412	317C  CD 21			 int	 21h
   2413	317E  5A			 pop	 dx
   2414	317F			     SkipDbgLSLOK:
   2415	317F  F8			 clc
   2416
   2417	3180			     RegisterDone:
   2418	3180  5E			 pop	 si
   2419	3181  5F			 pop	 di
   2420	3182  07			 pop	 es
   2421	3183  5A			 pop	 dx
   2422	3184  59			 pop	 cx
   2423	3185  5B			 pop	 bx
   2424	3186  58			 pop	 ax
   2425	3187  C3			 ret
   2426	3188			     RegisterWithLSL ENDP
   2427
   2428				     ;=============================================================================
   2429				     ; MLID Interface Functions	(called	by LSL)
   2430				     ;=============================================================================
   2431
   2432	3188			     MLIDGetStats PROC FAR
   2433					 ; Return pointer to statistics	in ES:SI
   2434	3188  1E			 push	 ds
   2435	3189  07			 pop	 es
   2436	318A  BE 011Er			 lea	 si, Statistics
   2437	318D  33 C0			 xor	 ax, ax		     ; Success
   2438	318F  CB			 retf
   2439	3190			     MLIDGetStats ENDP
   2440
   2441	3190			     MLIDAddMulticast PROC FAR
   2442					 ; Add multicast address - not supported for serial
   2443	3190  B8 0001			 mov	 ax, 1		     ; Not supported
   2444	3193  CB			 retf
   2445	3194			     MLIDAddMulticast ENDP
   2446
   2447	3194			     MLIDDelMulticast PROC FAR
   2448					 ; Delete multicast address - not supported for	serial
   2449	3194  B8 0001			 mov	 ax, 1		     ; Not supported
   2450	3197  CB			 retf
   2451	3198			     MLIDDelMulticast ENDP
Turbo Assembler	 Version 4.1	    03/03/26 01:07:02	    Page 44
DCEMLID.ASM



   2452
   2453	3198			     MLIDShutdownProc PROC FAR
   2454					 ; Shutdown the	MLID
   2455					 ; Entry: AX = board number, CX	= 0000h	for permanent, non-zero	for temporary
   2456					 ; NOTE: This just clears internal state. Deregistration from LSL must be
   2457					 ; done	by UnloadDriver	with proper segment setup.
   2458	3198  C6 06 013Fr 00		 mov	 DriverActive, 0
   2459	319D  33 C0			 xor	 ax, ax
   2460	319F  CB			 retf
   2461	31A0			     MLIDShutdownProc ENDP
   2462
   2463	31A0			     MLIDResetProc PROC	FAR
   2464					 ; Reset the MLID - reinitialize buffers
   2465	31A0  C6 06 0176r 00		 mov	 RxState, 0	     ; STATE_IDLE = 0
   2466	31A5  C7 06 0178r 0000		 mov	 RxBufIdx, 0
   2467	31AB  C6 06 0155r 00		 mov	 TxPending, 0
   2468	31B0  33 C0			 xor	 ax, ax
   2469	31B2  CB			 retf
   2470	31B3			     MLIDResetProc ENDP
   2471
   2472				     ;=============================================================================
   2473				     ; INT 2Fh Multiplex Handler
   2474				     ;=============================================================================
   2475
   2476	      =00C0		     MULTIPLEX_AH    EQU (MULTIPLEX_ID SHR 8)	 ; High	byte of	multiplex ID (C0h)
   2477
   2478	31B3			     Int2FHandler PROC FAR
   2479	31B3  80 FC C0			 cmp	 ah, MULTIPLEX_AH	 ; Check AH only, not full AX
   2480	31B6  74 05			 je	 OurMultiplex
   2481
   2482					 ; Chain to previous handler
   2483	31B8  2E: FF 2E	014Cr		 jmp	 dword ptr cs:[OldInt2F_Off]
   2484
   2485	31BD			     OurMultiplex:
   2486					 ; AH =	MULTIPLEX_ID high byte,	AL = subfunction
   2487					 ; AL=00h/A0h: Installation check - return AL=FFh, ES=TSR segment
   2488					 ; AL=01h/A1h: Get info	- return ES=TSR	segment, BX=board number
   2489					 ; Check for subfunction 01h (either A1h or 01h	depending on caller)
   2490	31BD  A8 01			 test	 al, 01h
   2491	31BF  75 05			 jnz	 Mux_GetInfo
   2492
   2493					 ; Default: Installation check (AL=00h or A0h)
   2494	31C1  B0 FF			 mov	 al, 0FFh
   2495	31C3  0E			 push	 cs
   2496	31C4  07			 pop	 es			 ; Return TSR segment in ES
   2497	31C5  CF			 iret
   2498
   2499	31C6			     Mux_GetInfo:
   2500	31C6  0E			 push	 cs
   2501	31C7  07			 pop	 es			 ; TSR segment in ES
   2502	31C8  2E: 8B 1E	014Ar		 mov	 bx, cs:[LSLBoardNum]	 ; Board number	in BX
   2503	31CD  B0 FF			 mov	 al, 0FFh
   2504	31CF  CF			 iret
   2505	31D0			     Int2FHandler ENDP
   2506
   2507				     ;=============================================================================
   2508				     ; Serial Port Interrupt Service Routine
Turbo Assembler	 Version 4.1	    03/03/26 01:07:02	    Page 45
DCEMLID.ASM



   2509				     ;=============================================================================
   2510
   2511	31D0			     SerialISR PROC FAR
   2512	31D0  50			 push	 ax
   2513	31D1  53			 push	 bx
   2514	31D2  52			 push	 dx
   2515	31D3  1E			 push	 ds
   2516
   2517	31D4  8C C8			 mov	 ax, cs		     ; .COM file: CS=DS=ES
   2518	31D6  8E D8			 mov	 ds, ax
   2519
   2520					 ; Read	IIR to determine interrupt source
   2521	31D8  8B 16 010Cr		 mov	 dx, CfgData.Port
   2522	31DC  83 C2 02			 add	 dx, UART_IIR
   2523	31DF  EC			 in	 al, dx
   2524
   2525					 ; Check if it's a receive interrupt
   2526	31E0  A8 04			 test	 al, 04h
   2527	31E2  74 45			 jz	 SerialNotReceive
   2528
   2529					 ; Read	received data
   2530	31E4  8B 16 010Cr		 mov	 dx, CfgData.Port
   2531	31E8  EC			 in	 al, dx
   2532
   2533					 ; Check for ACK
   2534	31E9  3C 06			 cmp	 al, ACK_CHAR
   2535	31EB  74 05			 je	 HandleACK
   2536
   2537					 ; Process received byte through frame parser
   2538	31ED  E8 0064			 call	 ProcessReceivedByte
   2539	31F0  EB 37			 jmp	 SerialNotReceive
   2540
   2541	31F2			     HandleACK:
   2542					 ; Read	sequence number
   2543	31F2  8B 16 010Cr		 mov	 dx, CfgData.Port
   2544	31F6  50			 push	 ax
   2545	31F7			     WaitForSeq:
   2546	31F7  83 C2 05			 add	 dx, UART_LSR
   2547	31FA  EC			 in	 al, dx
   2548	31FB  A8 01			 test	 al, 01h		 ; Data	ready?
   2549	31FD  74 F8			 jz	 WaitForSeq
   2550	31FF  83 EA 05			 sub	 dx, UART_LSR
   2551	3202  EC			 in	 al, dx			 ; Read	sequence number
   2552
   2553					 ; Check if it matches current transmission
   2554	3203  3A 06 1BDEr		 cmp	 al, byte ptr TxFrameBuffer
   2555	3207  75 1F			 jne	 ACKMismatch
   2556
   2557					 ; ACK received, complete current ECB successfully
   2558	3209  06			 push	 es
   2559	320A  56			 push	 si
   2560	320B  C4 36 0163r		 les	 si, dword ptr TxCurrentECB
   2561	320F  83 FE 00			 cmp	 si, 0
   2562	3212  74 0F			 je	 NoCurrentECB
   2563	3214  83 3E 0165r 00		 cmp	 word ptr TxCurrentECB+2, 0
   2564	3219  74 08			 je	 NoCurrentECB
   2565	321B  26: C6 44	09 00		 mov	 byte ptr es:[si+ECB_CompCode],	ECB_SUCCESS
Turbo Assembler	 Version 4.1	    03/03/26 01:07:02	    Page 46
DCEMLID.ASM



   2566	3220  E8 0456			 call	 CompleteTransmitECB
   2567	3223			     NoCurrentECB:
   2568	3223  5E			 pop	 si
   2569	3224  07			 pop	 es
   2570
   2571					 ; Start next transmission
   2572	3225  E8 0298			 call	 StartNextTransmit
   2573
   2574	3228			     ACKMismatch:
   2575	3228  58			 pop	 ax
   2576
   2577	3229			     SerialNotReceive:
   2578					 ; Send	EOI to PIC
   2579	3229  B0 20			 mov	 al, 20h
   2580	322B  80 3E 0119r 08		 cmp	 CfgData.IRQNum, 8
   2581	3230  72 02			 jb	 SerialEOI1
   2582
   2583	3232  E6 A0			 out	 0A0h, al	     ; EOI to PIC2
   2584	3234			     SerialEOI1:
   2585	3234  E6 20			 out	 020h, al	     ; EOI to PIC1
   2586
   2587	3236  1F			 pop	 ds
   2588	3237  5A			 pop	 dx
   2589	3238  5B			 pop	 bx
   2590	3239  58			 pop	 ax
   2591
   2592					 ; Chain to previous handler
   2593	323A  2E: FF 2E	0150r		 jmp	 dword ptr cs:[OldHwInt_Off]
   2594	323F			     SerialISR ENDP
   2595
   2596				     ;=============================================================================
   2597				     ; Parallel	Port Interrupt Service Routine
   2598				     ;=============================================================================
   2599
   2600	323F			     ParallelISR PROC FAR
   2601	323F  50			 push	 ax
   2602	3240  53			 push	 bx
   2603	3241  52			 push	 dx
   2604	3242  1E			 push	 ds
   2605
   2606	3243  8C C8			 mov	 ax, cs		     ; .COM file: CS=DS=ES
   2607	3245  8E D8			 mov	 ds, ax
   2608
   2609					 ; Handle parallel port	interrupt
   2610					 ; (Implementation depends on specific mode)
   2611
   2612					 ; Send	EOI to PIC
   2613	3247  B0 20			 mov	 al, 20h
   2614	3249  E6 20			 out	 020h, al
   2615
   2616	324B  1F			 pop	 ds
   2617	324C  5A			 pop	 dx
   2618	324D  5B			 pop	 bx
   2619	324E  58			 pop	 ax
   2620
   2621	324F  2E: FF 2E	0150r		 jmp	 dword ptr cs:[OldHwInt_Off]
   2622	3254			     ParallelISR ENDP
Turbo Assembler	 Version 4.1	    03/03/26 01:07:02	    Page 47
DCEMLID.ASM



   2623
   2624				     ;=============================================================================
   2625				     ; ProcessReceivedByte - Process received byte through frame parser	FSM
   2626				     ; Input: AL = received byte
   2627				     ;=============================================================================
   2628
   2629				     ; FSM States
   2630	      =0000		     STATE_IDLE	     EQU 0
   2631	      =0001		     STATE_SEQ	     EQU 1
   2632	      =0002		     STATE_LEN_LO    EQU 2
   2633	      =0003		     STATE_LEN_HI    EQU 3
   2634	      =0004		     STATE_DATA	     EQU 4
   2635	      =0005		     STATE_CRC_LO    EQU 5
   2636	      =0006		     STATE_CRC_HI    EQU 6
   2637
   2638	3254			     ProcessReceivedByte PROC
   2639	3254  53			 push	 bx
   2640	3255  51			 push	 cx
   2641	3256  57			 push	 di
   2642
   2643					 ; Check for escape sequence
   2644	3257  80 3E 0177r 00		 cmp	 RxEscaped, 0
   2645	325C  74 27			 je	 NotEscaped
   2646
   2647					 ; Process escaped byte
   2648	325E  C6 06 0177r 00		 mov	 RxEscaped, 0
   2649	3263  3C DC			 cmp	 al, ESC_START
   2650	3265  74 0E			 je	 UnescapeStart
   2651	3267  3C DD			 cmp	 al, ESC_ESC
   2652	3269  74 0E			 je	 UnescapeESC
   2653	326B  3C DE			 cmp	 al, ESC_XON
   2654	326D  74 0E			 je	 UnescapeXON
   2655	326F  3C DF			 cmp	 al, ESC_XOFF
   2656	3271  74 0E			 je	 UnescapeXOFF
   2657	3273  EB 18			 jmp	 ProcessByte
   2658
   2659	3275			     UnescapeStart:
   2660	3275  B0 C0			 mov	 al, FRAME_START
   2661	3277  EB 14			 jmp	 ProcessByte
   2662
   2663	3279			     UnescapeESC:
   2664	3279  B0 DB			 mov	 al, FRAME_ESC
   2665	327B  EB 10			 jmp	 ProcessByte
   2666
   2667	327D			     UnescapeXON:
   2668	327D  B0 11			 mov	 al, XON_CHAR
   2669	327F  EB 0C			 jmp	 ProcessByte
   2670
   2671	3281			     UnescapeXOFF:
   2672	3281  B0 13			 mov	 al, XOFF_CHAR
   2673	3283  EB 08			 jmp	 ProcessByte
   2674
   2675	3285			     NotEscaped:
   2676					 ; Check for frame delimiter
   2677	3285  3C C0			 cmp	 al, FRAME_START
   2678	3287  74 34			 je	 FrameStart
   2679
Turbo Assembler	 Version 4.1	    03/03/26 01:07:02	    Page 48
DCEMLID.ASM



   2680					 ; Check for escape character
   2681	3289  3C DB			 cmp	 al, FRAME_ESC
   2682	328B  74 44			 je	 FrameEscape
   2683
   2684	328D			     ProcessByte:
   2685					 ; Process based on current state
   2686	328D  8A 1E 0176r		 mov	 bl, RxState
   2687	3291  80 FB 00			 cmp	 bl, STATE_IDLE
   2688	3294  74 43			 je	 StateIdle
   2689	3296  80 FB 01			 cmp	 bl, STATE_SEQ
   2690	3299  74 41			 je	 StateSeq
   2691	329B  80 FB 02			 cmp	 bl, STATE_LEN_LO
   2692	329E  74 49			 je	 StateLenLo
   2693	32A0  80 FB 03			 cmp	 bl, STATE_LEN_HI
   2694	32A3  74 51			 je	 StateLenHi
   2695	32A5  80 FB 04			 cmp	 bl, STATE_DATA
   2696	32A8  74 64			 je	 StateData
   2697	32AA  80 FB 05			 cmp	 bl, STATE_CRC_LO
   2698	32AD  75 03 E9 007E		 je	 StateCRCLo
   2699	32B2  80 FB 06			 cmp	 bl, STATE_CRC_HI
   2700	32B5  75 03 E9 0081		 je	 StateCRCHi
   2701	32BA  E9 009E			 jmp	 ProcessDone
   2702
   2703	32BD			     FrameStart:
   2704					 ; Start of new	frame
   2705	32BD  C6 06 0176r 01		 mov	 RxState, STATE_SEQ
   2706	32C2  C7 06 0178r 0000		 mov	 RxBufIdx, 0
   2707	32C8  C7 06 017Cr FFFF		 mov	 RxCRC,	0FFFFh
   2708	32CE  E9 008A			 jmp	 ProcessDone
   2709
   2710	32D1			     FrameEscape:
   2711	32D1  C6 06 0177r 01		 mov	 RxEscaped, 1
   2712	32D6  E9 0082			 jmp	 ProcessDone
   2713
   2714	32D9			     StateIdle:
   2715					 ; Ignore bytes	in idle	state
   2716	32D9  E9 007F			 jmp	 ProcessDone
   2717
   2718	32DC			     StateSeq:
   2719					 ; Store sequence number
   2720	32DC  A2 197Er			 mov	 byte ptr FrameBuffer[0], al
   2721	32DF  E8 007D			 call	 UpdateCRC
   2722	32E2  C6 06 0176r 02		 mov	 RxState, STATE_LEN_LO
   2723	32E7  EB 72			 jmp	 ProcessDone
   2724
   2725	32E9			     StateLenLo:
   2726					 ; Store length	low byte
   2727	32E9  A2 197Fr			 mov	 byte ptr FrameBuffer[1], al
   2728	32EC  E8 0070			 call	 UpdateCRC
   2729	32EF  C6 06 0176r 03		 mov	 RxState, STATE_LEN_HI
   2730	32F4  EB 65			 jmp	 ProcessDone
   2731
   2732	32F6			     StateLenHi:
   2733					 ; Store length	high byte and validate
   2734	32F6  A2 1980r			 mov	 byte ptr FrameBuffer[2], al
   2735	32F9  E8 0063			 call	 UpdateCRC
   2736	32FC  A1 197Fr			 mov	 ax, word ptr FrameBuffer[1]
Turbo Assembler	 Version 4.1	    03/03/26 01:07:02	    Page 49
DCEMLID.ASM



   2737	32FF  A3 017Ar			 mov	 RxFrameLen, ax
   2738	3302  3D 0240			 cmp	 ax, MTU_SIZE
   2739	3305  77 49			 ja	 FrameError
   2740	3307  C6 06 0176r 04		 mov	 RxState, STATE_DATA
   2741	330C  EB 4D			 jmp	 ProcessDone
   2742
   2743	330E			     StateData:
   2744					 ; Store data byte
   2745	330E  8B 1E 0178r		 mov	 bx, RxBufIdx
   2746	3312  83 C3 03			 add	 bx, 3
   2747	3315  88 87 197Er		 mov	 byte ptr FrameBuffer[bx], al
   2748	3319  E8 0043			 call	 UpdateCRC
   2749	331C  FF 06 0178r		 inc	 RxBufIdx
   2750	3320  A1 0178r			 mov	 ax, RxBufIdx
   2751	3323  3B 06 017Ar		 cmp	 ax, RxFrameLen
   2752	3327  72 32			 jb	 ProcessDone
   2753	3329  C6 06 0176r 05		 mov	 RxState, STATE_CRC_LO
   2754	332E  EB 2B			 jmp	 ProcessDone
   2755
   2756	3330			     StateCRCLo:
   2757					 ; Receive CRC low byte
   2758	3330  88 87 197Er		 mov	 byte ptr FrameBuffer[bx], al
   2759	3334  C6 06 0176r 06		 mov	 RxState, STATE_CRC_HI
   2760	3339  EB 20			 jmp	 ProcessDone
   2761
   2762	333B			     StateCRCHi:
   2763					 ; Receive CRC high byte and validate frame
   2764	333B  8B 1E 0178r		 mov	 bx, RxBufIdx
   2765	333F  83 C3 04			 add	 bx, 4
   2766	3342  88 87 197Er		 mov	 byte ptr FrameBuffer[bx], al
   2767
   2768					 ; Validate CRC
   2769	3346  E8 007A			 call	 ValidateFrame
   2770
   2771					 ; Reset to idle
   2772	3349  C6 06 0176r 00		 mov	 RxState, STATE_IDLE
   2773	334E  EB 0B			 jmp	 ProcessDone
   2774
   2775	3350			     FrameError:
   2776					 ; Reset state on error
   2777	3350  C6 06 0176r 00		 mov	 RxState, STATE_IDLE
   2778	3355  BB 012Er			 lea	 bx, Statistics.CRCErrors
   2779	3358  E8 066D			 call	 Inc32
   2780
   2781	335B			     ProcessDone:
   2782	335B  5F			 pop	 di
   2783	335C  59			 pop	 cx
   2784	335D  5B			 pop	 bx
   2785	335E  C3			 ret
   2786	335F			     ProcessReceivedByte ENDP
   2787
   2788				     ;=============================================================================
   2789				     ; UpdateCRC - Update running CRC16-CCITT calculation
   2790				     ; Input: AL = byte	to add to CRC
   2791				     ;=============================================================================
   2792
   2793	335F			     UpdateCRC PROC
Turbo Assembler	 Version 4.1	    03/03/26 01:07:02	    Page 50
DCEMLID.ASM



   2794	335F  50			 push	 ax
   2795	3360  53			 push	 bx
   2796	3361  51			 push	 cx
   2797
   2798	3362  32 E4			 xor	 ah, ah
   2799	3364  8B 1E 017Cr		 mov	 bx, RxCRC
   2800	3368  32 D8			 xor	 bl, al
   2801	336A  32 FF			 xor	 bh, bh
   2802	336C  D1 E3			 shl	 bx, 1
   2803	336E  2E: 8B 8F	3383r		 mov	 cx, word ptr cs:CRCTable[bx]
   2804	3373  A1 017Cr			 mov	 ax, RxCRC
   2805	3376  8A C4			 mov	 al, ah		     ; shr ax, 8 - move	high byte to low
   2806	3378  32 E4			 xor	 ah, ah
   2807	337A  33 C1			 xor	 ax, cx
   2808	337C  A3 017Cr			 mov	 RxCRC,	ax
   2809
   2810	337F  59			 pop	 cx
   2811	3380  5B			 pop	 bx
   2812	3381  58			 pop	 ax
   2813	3382  C3			 ret
   2814	3383			     UpdateCRC ENDP
   2815
   2816				     ;=============================================================================
   2817				     ; CRC16-CCITT Lookup Table	(polynomial 0x1021)
   2818				     ;=============================================================================
   2819
   2820	3383			     CRCTable:
   2821	3383  0000 1021	2042 3063 +	 DW 00000h, 01021h, 02042h, 03063h, 04084h, 050A5h, 060C6h, 070E7h
   2822	      4084 50A5	60C6 70E7
   2823	3393  8108 9129	A14A B16B +	 DW 08108h, 09129h, 0A14Ah, 0B16Bh, 0C18Ch, 0D1ADh, 0E1CEh, 0F1EFh
   2824	      C18C D1AD	E1CE F1EF
   2825	33A3  1231 0210	3273 2252 +	 DW 01231h, 00210h, 03273h, 02252h, 052B5h, 04294h, 072F7h, 062D6h
   2826	      52B5 4294	72F7 62D6
   2827	33B3  9339 8318	B37B A35A +	 DW 09339h, 08318h, 0B37Bh, 0A35Ah, 0D3BDh, 0C39Ch, 0F3FFh, 0E3DEh
   2828	      D3BD C39C	F3FF E3DE
   2829					 ; ... (remaining 240 entries omitted for brevity - full table needed)
   2830
   2831				     ;=============================================================================
   2832				     ; ValidateFrame - Validate	received frame and deliver to LSL
   2833				     ;=============================================================================
   2834
   2835	33C3			     ValidateFrame PROC
   2836					 ; Check sequence number for duplicates
   2837	33C3  A0 197Er			 mov	 al, byte ptr FrameBuffer[0]
   2838	33C6  3A 06 0175r		 cmp	 al, RxSeqNum
   2839	33CA  74 1C			 je	 DuplicateFrame
   2840	33CC  A2 0175r			 mov	 RxSeqNum, al
   2841
   2842					 ; Deliver frame to LSL
   2843	33CF  E8 001A			 call	 DeliverFrameToLSL
   2844
   2845					 ; Send	ACK
   2846	33D2  E8 0048			 call	 SendACK
   2847
   2848					 ; Update statistics
   2849	33D5  BB 0126r			 lea	 bx, Statistics.RxPackets
   2850	33D8  E8 05ED			 call	 Inc32
Turbo Assembler	 Version 4.1	    03/03/26 01:07:02	    Page 51
DCEMLID.ASM



   2851	33DB  A1 017Ar			 mov	 ax, RxFrameLen
   2852	33DE  E8 05F9			 call	 ZeroExtend16to32    ; DX:AX = 32-bit length
   2853	33E1  BB 012Ar			 lea	 bx, Statistics.RxBytes
   2854	33E4  E8 05E9			 call	 Add32
   2855
   2856	33E7  C3			 ret
   2857
   2858	33E8			     DuplicateFrame:
   2859					 ; Still send ACK for duplicate
   2860	33E8  E8 0032			 call	 SendACK
   2861	33EB  C3			 ret
   2862	33EC			     ValidateFrame ENDP
   2863
   2864				     ;=============================================================================
   2865				     ; DeliverFrameToLSL - Deliver received frame to LSL
   2866				     ;=============================================================================
   2867
   2868	33EC			     DeliverFrameToLSL PROC
   2869	33EC  50			 push	 ax
   2870	33ED  53			 push	 bx
   2871	33EE  51			 push	 cx
   2872	33EF  52			 push	 dx
   2873	33F0  1E			 push	 ds
   2874	33F1  06			 push	 es
   2875	33F2  56			 push	 si
   2876	33F3  57			 push	 di
   2877
   2878					 ; Check if receive handler is registered
   2879	33F4  83 3E 0140r 00		 cmp	 RxHandlerOff, 0
   2880	33F9  75 07			 jne	 HasHandler
   2881	33FB  83 3E 0142r 00		 cmp	 RxHandlerSeg, 0
   2882	3400  74 12			 je	 NoRxHandler
   2883
   2884	3402			     HasHandler:
   2885					 ; Set up for LSL call
   2886					 ; LSL expects:
   2887					 ; ES:SI = packet data
   2888					 ; CX =	packet length
   2889					 ; AX =	protocol ID (for us, always 0 -	let LSL	demux)
   2890
   2891	3402  8C C8			 mov	 ax, cs		     ; .COM file: CS=DS=ES
   2892	3404  8E C0			 mov	 es, ax
   2893	3406  BE 1981r			 lea	 si, FrameBuffer+3	 ; Skip	seq + length header
   2894	3409  8B 0E 017Ar		 mov	 cx, RxFrameLen
   2895	340D  33 C0			 xor	 ax, ax			 ; Protocol ID = 0
   2896
   2897					 ; Call	LSL receive handler
   2898					 ; The handler will allocate ECB and copy data
   2899	340F  2E: FF 1E	0140r		 call	 dword ptr cs:[RxHandlerOff]
   2900
   2901	3414			     NoRxHandler:
   2902	3414  5F			 pop	 di
   2903	3415  5E			 pop	 si
   2904	3416  07			 pop	 es
   2905	3417  1F			 pop	 ds
   2906	3418  5A			 pop	 dx
   2907	3419  59			 pop	 cx
Turbo Assembler	 Version 4.1	    03/03/26 01:07:02	    Page 52
DCEMLID.ASM



   2908	341A  5B			 pop	 bx
   2909	341B  58			 pop	 ax
   2910	341C  C3			 ret
   2911	341D			     DeliverFrameToLSL ENDP
   2912
   2913				     ;=============================================================================
   2914				     ; SendACK - Send acknowledgment for received frame
   2915				     ;=============================================================================
   2916
   2917	341D			     SendACK PROC
   2918	341D  50			 push	 ax
   2919	341E  52			 push	 dx
   2920
   2921	341F  B0 06			 mov	 al, ACK_CHAR
   2922	3421  8A 26 197Er		 mov	 ah, byte ptr FrameBuffer[0]  ;	Sequence number
   2923
   2924	3425  8B 16 010Cr		 mov	 dx, CfgData.Port
   2925
   2926					 ; Wait	for transmit ready
   2927	3429			     WaitTxReady:
   2928	3429  83 C2 05			 add	 dx, UART_LSR
   2929	342C  EC			 in	 al, dx
   2930	342D  A8 20			 test	 al, 20h
   2931	342F  74 F8			 jz	 WaitTxReady
   2932
   2933					 ; Send	ACK
   2934	3431  83 EA 05			 sub	 dx, UART_LSR
   2935	3434  B0 06			 mov	 al, ACK_CHAR
   2936	3436  EE			 out	 dx, al
   2937
   2938					 ; Send	sequence number
   2939	3437			     WaitTxReady2:
   2940	3437  83 C2 05			 add	 dx, UART_LSR
   2941	343A  EC			 in	 al, dx
   2942	343B  A8 20			 test	 al, 20h
   2943	343D  74 F8			 jz	 WaitTxReady2
   2944
   2945	343F  83 EA 05			 sub	 dx, UART_LSR
   2946	3442  8A C4			 mov	 al, ah
   2947	3444  EE			 out	 dx, al
   2948
   2949	3445  5A			 pop	 dx
   2950	3446  58			 pop	 ax
   2951	3447  C3			 ret
   2952	3448			     SendACK ENDP
   2953
   2954				     ;=============================================================================
   2955				     ; MLID Handler Functions
   2956				     ;=============================================================================
   2957
   2958	3448			     MLIDReceiveHandler	PROC FAR
   2959					 ; Stub	- actual implementation	handles	ECB
   2960	3448  CB			 ret
   2961	3449			     MLIDReceiveHandler	ENDP
   2962
   2963	3449			     MLIDTransmitHandler PROC FAR
   2964					 ; ES:SI = ECB to send
Turbo Assembler	 Version 4.1	    03/03/26 01:07:02	    Page 53
DCEMLID.ASM



   2965					 ; Called by IPX to queue a packet for transmission
   2966	3449  50			 push	 ax
   2967	344A  53			 push	 bx
   2968	344B  51			 push	 cx
   2969	344C  52			 push	 dx
   2970	344D  1E			 push	 ds
   2971	344E  06			 push	 es
   2972	344F  56			 push	 si
   2973	3450  57			 push	 di
   2974
   2975					 ; Set up data segment
   2976	3451  8C C8			 mov	 ax, cs		     ; .COM file: CS=DS=ES
   2977	3453  8E D8			 mov	 ds, ax
   2978
   2979					 ; Mark	ECB as in use
   2980	3455  26: C6 44	08 FF		 mov	 byte ptr es:[si+ECB_InUse], 0FFh
   2981
   2982					 ; Add ECB to transmit queue
   2983	345A  E8 0013			 call	 QueueTransmitECB
   2984
   2985					 ; Start transmission if not already transmitting
   2986	345D  80 3E 0155r 00		 cmp	 TxPending, 0
   2987	3462  75 03			 jne	 TxAlreadyActive
   2988	3464  E8 0059			 call	 StartNextTransmit
   2989
   2990	3467			     TxAlreadyActive:
   2991	3467  5F			 pop	 di
   2992	3468  5E			 pop	 si
   2993	3469  07			 pop	 es
   2994	346A  1F			 pop	 ds
   2995	346B  5A			 pop	 dx
   2996	346C  59			 pop	 cx
   2997	346D  5B			 pop	 bx
   2998	346E  58			 pop	 ax
   2999	346F  CB			 retf
   3000	3470			     MLIDTransmitHandler ENDP
   3001
   3002				     ;=============================================================================
   3003				     ; QueueTransmitECB	- Add ECB to transmit queue
   3004				     ; Input: ES:SI = ECB address
   3005				     ;=============================================================================
   3006
   3007	3470			     QueueTransmitECB PROC
   3008	3470  50			 push	 ax
   3009	3471  53			 push	 bx
   3010
   3011					 ; Clear the link field	(this will be last in queue)
   3012	3472  26: C7 04	0000		 mov	 word ptr es:[si+ECB_Link], 0
   3013	3477  26: C7 44	02 0000		 mov	 word ptr es:[si+ECB_Link+2], 0
   3014
   3015					 ; Check if queue is empty
   3016	347D  83 3E 0159r 00		 cmp	 word ptr TxQueueHead, 0
   3017	3482  75 1F			 jne	 QueueNotEmpty
   3018	3484  83 3E 015Br 00		 cmp	 word ptr TxQueueHead+2, 0
   3019	3489  75 18			 jne	 QueueNotEmpty
   3020
   3021					 ; Queue is empty, this	is first ECB
Turbo Assembler	 Version 4.1	    03/03/26 01:07:02	    Page 54
DCEMLID.ASM



   3022	348B  89 36 0159r		 mov	 word ptr TxQueueHead, si
   3023	348F  8C 06 015Br		 mov	 word ptr TxQueueHead+2, es
   3024	3493  89 36 015Dr		 mov	 word ptr TxQueueTail, si
   3025	3497  8C 06 015Fr		 mov	 word ptr TxQueueTail+2, es
   3026	349B  C7 06 0161r 0001		 mov	 TxQueueCount, 1
   3027	34A1  EB 1A			 jmp	 QueueDone
   3028
   3029	34A3			     QueueNotEmpty:
   3030					 ; Add to tail of queue
   3031	34A3  06			 push	 es
   3032	34A4  56			 push	 si
   3033
   3034					 ; Load	tail ECB
   3035	34A5  C4 36 015Dr		 les	 si, dword ptr TxQueueTail
   3036
   3037					 ; Get new ECB from stack
   3038	34A9  5B			 pop	 bx			 ; New offset
   3039	34AA  58			 pop	 ax			 ; New segment
   3040
   3041					 ; Link	tail to	new ECB
   3042	34AB  26: 89 1C			 mov	 word ptr es:[si+ECB_Link], bx
   3043	34AE  26: 89 44	02		 mov	 word ptr es:[si+ECB_Link+2], ax
   3044
   3045					 ; Update tail pointer
   3046	34B2  89 1E 015Dr		 mov	 word ptr TxQueueTail, bx
   3047	34B6  A3 015Fr			 mov	 word ptr TxQueueTail+2, ax
   3048	34B9  FF 06 0161r		 inc	 TxQueueCount
   3049
   3050	34BD			     QueueDone:
   3051	34BD  5B			 pop	 bx
   3052	34BE  58			 pop	 ax
   3053	34BF  C3			 ret
   3054	34C0			     QueueTransmitECB ENDP
   3055
   3056				     ;=============================================================================
   3057				     ; StartNextTransmit - Begin transmitting next queued ECB
   3058				     ;=============================================================================
   3059
   3060	34C0			     StartNextTransmit PROC
   3061	34C0  50			 push	 ax
   3062	34C1  53			 push	 bx
   3063	34C2  51			 push	 cx
   3064	34C3  52			 push	 dx
   3065	34C4  06			 push	 es
   3066	34C5  56			 push	 si
   3067
   3068					 ; Check if queue is empty
   3069	34C6  83 3E 0159r 00		 cmp	 word ptr TxQueueHead, 0
   3070	34CB  75 07			 jne	 HasPacket
   3071	34CD  83 3E 015Br 00		 cmp	 word ptr TxQueueHead+2, 0
   3072	34D2  74 37			 je	 NoPacket
   3073
   3074	34D4			     HasPacket:
   3075					 ; Load	ECB from queue head
   3076	34D4  C4 36 0159r		 les	 si, dword ptr TxQueueHead
   3077
   3078					 ; Save	current	ECB
Turbo Assembler	 Version 4.1	    03/03/26 01:07:02	    Page 55
DCEMLID.ASM



   3079	34D8  89 36 0163r		 mov	 word ptr TxCurrentECB,	si
   3080	34DC  8C 06 0165r		 mov	 word ptr TxCurrentECB+2, es
   3081	34E0  8C 06 0167r		 mov	 TxCurrentSeg, es
   3082	34E4  89 36 0169r		 mov	 TxCurrentOff, si
   3083
   3084					 ; Build packet	frame from ECB fragments
   3085	34E8  E8 0027			 call	 BuildTransmitFrame
   3086	34EB  72 0F			 jc	 TransmitError
   3087
   3088					 ; Start transmitting the frame
   3089	34ED  E8 009C			 call	 TransmitFrame
   3090
   3091					 ; Mark	as transmitting
   3092	34F0  C6 06 0155r 01		 mov	 TxPending, 1
   3093	34F5  C6 06 0156r 00		 mov	 TxRetryCount, 0
   3094
   3095	34FA  EB 0F			 jmp	 StartDone
   3096
   3097	34FC			     TransmitError:
   3098					 ; Complete ECB	with error
   3099	34FC  C4 36 0163r		 les	 si, dword ptr TxCurrentECB
   3100	3500  26: C6 44	09 FD		 mov	 byte ptr es:[si+ECB_CompCode],	ECB_HARDWARE
   3101	3505  E8 0171			 call	 CompleteTransmitECB
   3102
   3103					 ; Try next packet
   3104	3508  E8 FFB5			 call	 StartNextTransmit
   3105
   3106	350B			     NoPacket:
   3107	350B			     StartDone:
   3108	350B  5E			 pop	 si
   3109	350C  07			 pop	 es
   3110	350D  5A			 pop	 dx
   3111	350E  59			 pop	 cx
   3112	350F  5B			 pop	 bx
   3113	3510  58			 pop	 ax
   3114	3511  C3			 ret
   3115	3512			     StartNextTransmit ENDP
   3116
   3117				     ;=============================================================================
   3118				     ; BuildTransmitFrame - Build frame	from ECB fragments
   3119				     ; Input: ES:SI = ECB
   3120				     ; Output: TxFrameBuffer contains frame, TxPacketSize = size, CF=1 on error
   3121				     ;=============================================================================
   3122
   3123	3512			     BuildTransmitFrame	PROC
   3124	3512  50			 push	 ax
   3125	3513  53			 push	 bx
   3126	3514  51			 push	 cx
   3127	3515  52			 push	 dx
   3128	3516  1E			 push	 ds
   3129	3517  06			 push	 es
   3130	3518  56			 push	 si
   3131	3519  57			 push	 di
   3132
   3133					 ; Set up destination (TxFrameBuffer)
   3134	351A  8C C8			 mov	 ax, cs		     ; .COM file: CS=DS=ES
   3135	351C  8E D8			 mov	 ds, ax
Turbo Assembler	 Version 4.1	    03/03/26 01:07:02	    Page 56
DCEMLID.ASM



   3136	351E  BF 1BDEr			 lea	 di, TxFrameBuffer
   3137
   3138					 ; Add frame header: sequence number + length (filled later)
   3139	3521  A0 0154r			 mov	 al, TxSeqNum
   3140	3524  AA			 stosb
   3141	3525  FE 06 0154r		 inc	 TxSeqNum
   3142
   3143					 ; Save	position for length field
   3144	3529  57			 push	 di
   3145	352A  83 C7 02			 add	 di, 2			 ; Reserve 2 bytes for length
   3146
   3147					 ; Get fragment	count
   3148	352D  26: 8B 4C	22		 mov	 cx, es:[si+ECB_FragCount]
   3149	3531  85 C9			 test	 cx, cx
   3150	3533  74 4C			 jz	 BuildError
   3151
   3152					 ; Point to fragment list
   3153	3535  83 C6 24			 add	 si, ECB_FragList
   3154
   3155	3538  33 DB			 xor	 bx, bx			 ; Total size counter
   3156
   3157	353A			     BuildFragLoop:
   3158	353A  51			 push	 cx
   3159
   3160					 ; Load	fragment address and size
   3161	353B  26: 8B 04			 mov	 ax, word ptr es:[si+FRAG_Addr]
   3162	353E  26: 8B 54	02		 mov	 dx, word ptr es:[si+FRAG_Addr+2]
   3163	3542  26: 8B 4C	04		 mov	 cx, es:[si+FRAG_Size]
   3164
   3165					 ; Check for reasonable	size
   3166	3546  85 C9			 test	 cx, cx
   3167	3548  74 22			 jz	 BuildFragNext
   3168	354A  81 F9 0240		 cmp	 cx, MTU_SIZE
   3169	354E  77 31			 ja	 BuildError
   3170
   3171					 ; Add to total
   3172	3550  03 D9			 add	 bx, cx
   3173	3552  81 FB 0240		 cmp	 bx, MTU_SIZE
   3174	3556  77 29			 ja	 BuildError
   3175
   3176					 ; Copy	fragment data
   3177	3558  06			 push	 es
   3178	3559  56			 push	 si
   3179
   3180	355A  8B F0			 mov	 si, ax
   3181	355C  8E C2			 mov	 es, dx
   3182
   3183					 ; ES:SI = source, DS:DI = dest, CX = count
   3184	355E  1E			 push	 ds
   3185	355F  58			 pop	 ax
   3186	3560  8E DA			 mov	 ds, dx
   3187	3562  50			 push	 ax
   3188	3563  07			 pop	 es
   3189
   3190	3564  F3> A4			 rep	 movsb
   3191
   3192					 ; Restore
Turbo Assembler	 Version 4.1	    03/03/26 01:07:02	    Page 57
DCEMLID.ASM



   3193	3566  5E			 pop	 si
   3194	3567  07			 pop	 es
   3195
   3196	3568  8C C8			 mov	 ax, cs		     ; .COM file: CS=DS=ES
   3197	356A  8E D8			 mov	 ds, ax
   3198
   3199	356C			     BuildFragNext:
   3200	356C  83 C6 06			 add	 si, 6			 ; Next	fragment descriptor
   3201	356F  59			 pop	 cx
   3202	3570  E2 C8			 loop	 BuildFragLoop
   3203
   3204					 ; Store total packet size
   3205	3572  89 1E 0171r		 mov	 TxPacketSize, bx
   3206
   3207					 ; Fill	in length field
   3208	3576  5F			 pop	 di			 ; Position after seq num
   3209	3577  8C C8			 mov	 ax, cs		     ; .COM file: CS=DS=ES
   3210	3579  8E C0			 mov	 es, ax
   3211	357B  8B C3			 mov	 ax, bx
   3212	357D  AB			 stosw				 ; Store length
   3213
   3214	357E  F8			 clc
   3215	357F  EB 02			 jmp	 BuildDone
   3216
   3217	3581			     BuildError:
   3218	3581  5F			 pop	 di			 ; Clean up stack
   3219	3582  F9			 stc
   3220
   3221	3583			     BuildDone:
   3222	3583  5F			 pop	 di
   3223	3584  5E			 pop	 si
   3224	3585  07			 pop	 es
   3225	3586  1F			 pop	 ds
   3226	3587  5A			 pop	 dx
   3227	3588  59			 pop	 cx
   3228	3589  5B			 pop	 bx
   3229	358A  58			 pop	 ax
   3230	358B  C3			 ret
   3231	358C			     BuildTransmitFrame	ENDP
   3232
   3233				     ;=============================================================================
   3234				     ; TransmitFrame - Send frame with escaping	and CRC
   3235				     ; Input: TxFrameBuffer contains frame, TxPacketSize = size
   3236				     ;=============================================================================
   3237
   3238	358C			     TransmitFrame PROC
   3239	358C  50			 push	 ax
   3240	358D  53			 push	 bx
   3241	358E  51			 push	 cx
   3242	358F  52			 push	 dx
   3243	3590  56			 push	 si
   3244
   3245					 ; Calculate CRC for frame
   3246	3591  BE 1BDEr			 lea	 si, TxFrameBuffer
   3247	3594  8B 0E 0171r		 mov	 cx, TxPacketSize
   3248	3598  83 C1 03			 add	 cx, 3			 ; Include seq + length
   3249	359B  E8 00A2			 call	 CalculateFrameCRC
Turbo Assembler	 Version 4.1	    03/03/26 01:07:02	    Page 58
DCEMLID.ASM



   3250
   3251					 ; Send	frame start delimiter
   3252	359E  B0 C0			 mov	 al, FRAME_START
   3253	35A0  E8 0085			 call	 SendByte
   3254
   3255					 ; Send	frame with escaping
   3256	35A3  BE 1BDEr			 lea	 si, TxFrameBuffer
   3257	35A6  8B 0E 0171r		 mov	 cx, TxPacketSize
   3258	35AA  83 C1 03			 add	 cx, 3			 ; Include seq + length
   3259
   3260	35AD			     TransmitLoop:
   3261	35AD  AC			 lodsb
   3262	35AE  E8 002A			 call	 SendByteWithEscape
   3263	35B1  E2 FA			 loop	 TransmitLoop
   3264
   3265					 ; Send	CRC
   3266	35B3  A1 0173r			 mov	 ax, word ptr TxCRC
   3267	35B6  E8 0022			 call	 SendByteWithEscape	 ; Send	low byte
   3268	35B9  8A C4			 mov	 al, ah
   3269	35BB  E8 001D			 call	 SendByteWithEscape	 ; Send	high byte
   3270
   3271					 ; Send	frame end delimiter
   3272	35BE  B0 C0			 mov	 al, FRAME_START
   3273	35C0  E8 0065			 call	 SendByte
   3274
   3275					 ; Update statistics
   3276	35C3  BB 011Er			 lea	 bx, Statistics.TxPackets
   3277	35C6  E8 03FF			 call	 Inc32
   3278	35C9  A1 0171r			 mov	 ax, TxPacketSize
   3279	35CC  E8 040B			 call	 ZeroExtend16to32    ; DX:AX = 32-bit size
   3280	35CF  BB 0122r			 lea	 bx, Statistics.TxBytes
   3281	35D2  E8 03FB			 call	 Add32
   3282
   3283	35D5  5E			 pop	 si
   3284	35D6  5A			 pop	 dx
   3285	35D7  59			 pop	 cx
   3286	35D8  5B			 pop	 bx
   3287	35D9  58			 pop	 ax
   3288	35DA  C3			 ret
   3289	35DB			     TransmitFrame ENDP
   3290
   3291				     ;=============================================================================
   3292				     ; SendByteWithEscape - Send byte with SLIP	escaping
   3293				     ; Input: AL = byte	to send
   3294				     ;=============================================================================
   3295
   3296	35DB			     SendByteWithEscape	PROC
   3297	35DB  50			 push	 ax
   3298
   3299	35DC  3C C0			 cmp	 al, FRAME_START
   3300	35DE  74 18			 je	 EscapeStart
   3301	35E0  3C DB			 cmp	 al, FRAME_ESC
   3302	35E2  74 20			 je	 EscapeESC
   3303
   3304					 ; Check flow control mode for XON/XOFF	escaping
   3305	35E4  80 3E 0112r 01		 cmp	 CfgData.FlowCtrl, 1
   3306	35E9  75 08			 jne	 SendNormal
Turbo Assembler	 Version 4.1	    03/03/26 01:07:02	    Page 59
DCEMLID.ASM



   3307
   3308	35EB  3C 11			 cmp	 al, XON_CHAR
   3309	35ED  74 21			 je	 EscapeXON
   3310	35EF  3C 13			 cmp	 al, XOFF_CHAR
   3311	35F1  74 29			 je	 EscapeXOFF
   3312
   3313	35F3			     SendNormal:
   3314	35F3  E8 0032			 call	 SendByte
   3315	35F6  EB 2E			 jmp	 SendEscDone
   3316
   3317	35F8			     EscapeStart:
   3318	35F8  B0 DB			 mov	 al, FRAME_ESC
   3319	35FA  E8 002B			 call	 SendByte
   3320	35FD  B0 DC			 mov	 al, ESC_START
   3321	35FF  E8 0026			 call	 SendByte
   3322	3602  EB 22			 jmp	 SendEscDone
   3323
   3324	3604			     EscapeESC:
   3325	3604  B0 DB			 mov	 al, FRAME_ESC
   3326	3606  E8 001F			 call	 SendByte
   3327	3609  B0 DD			 mov	 al, ESC_ESC
   3328	360B  E8 001A			 call	 SendByte
   3329	360E  EB 16			 jmp	 SendEscDone
   3330
   3331	3610			     EscapeXON:
   3332	3610  B0 DB			 mov	 al, FRAME_ESC
   3333	3612  E8 0013			 call	 SendByte
   3334	3615  B0 DE			 mov	 al, ESC_XON
   3335	3617  E8 000E			 call	 SendByte
   3336	361A  EB 0A			 jmp	 SendEscDone
   3337
   3338	361C			     EscapeXOFF:
   3339	361C  B0 DB			 mov	 al, FRAME_ESC
   3340	361E  E8 0007			 call	 SendByte
   3341	3621  B0 DF			 mov	 al, ESC_XOFF
   3342	3623  E8 0002			 call	 SendByte
   3343
   3344	3626			     SendEscDone:
   3345	3626  58			 pop	 ax
   3346	3627  C3			 ret
   3347	3628			     SendByteWithEscape	ENDP
   3348
   3349				     ;=============================================================================
   3350				     ; SendByte	- Send single byte to serial port
   3351				     ; Input: AL = byte
   3352				     ;=============================================================================
   3353
   3354	3628			     SendByte PROC
   3355	3628  50			 push	 ax
   3356	3629  52			 push	 dx
   3357
   3358	362A  8A E0			 mov	 ah, al
   3359	362C  8B 16 010Cr		 mov	 dx, CfgData.Port
   3360
   3361					 ; Wait	for transmitter	ready
   3362	3630			     SendWait:
   3363	3630  52			 push	 dx
Turbo Assembler	 Version 4.1	    03/03/26 01:07:02	    Page 60
DCEMLID.ASM



   3364	3631  83 C2 05			 add	 dx, UART_LSR
   3365	3634  EC			 in	 al, dx
   3366	3635  A8 20			 test	 al, 20h
   3367	3637  5A			 pop	 dx
   3368	3638  74 F6			 jz	 SendWait
   3369
   3370					 ; Send	byte
   3371	363A  8A C4			 mov	 al, ah
   3372	363C  EE			 out	 dx, al
   3373
   3374	363D  5A			 pop	 dx
   3375	363E  58			 pop	 ax
   3376	363F  C3			 ret
   3377	3640			     SendByte ENDP
   3378
   3379				     ;=============================================================================
   3380				     ; CalculateFrameCRC - Calculate CRC16 for frame
   3381				     ; Input: DS:SI = data, CX = length
   3382				     ; Output: TxCRC = calculated CRC
   3383				     ;=============================================================================
   3384
   3385	3640			     CalculateFrameCRC PROC
   3386	3640  50			 push	 ax
   3387	3641  53			 push	 bx
   3388	3642  51			 push	 cx
   3389	3643  56			 push	 si
   3390
   3391	3644  C7 06 0173r FFFF		 mov	 word ptr TxCRC, 0FFFFh
   3392
   3393	364A			     CalcCRCLoop:
   3394	364A  AC			 lodsb
   3395	364B  E8 0007			 call	 UpdateTxCRC
   3396	364E  E2 FA			 loop	 CalcCRCLoop
   3397
   3398	3650  5E			 pop	 si
   3399	3651  59			 pop	 cx
   3400	3652  5B			 pop	 bx
   3401	3653  58			 pop	 ax
   3402	3654  C3			 ret
   3403	3655			     CalculateFrameCRC ENDP
   3404
   3405				     ;=============================================================================
   3406				     ; UpdateTxCRC - Update transmit CRC with one byte
   3407				     ; Input: AL = byte
   3408				     ;=============================================================================
   3409
   3410	3655			     UpdateTxCRC PROC
   3411	3655  50			 push	 ax
   3412	3656  53			 push	 bx
   3413	3657  51			 push	 cx
   3414
   3415	3658  32 E4			 xor	 ah, ah
   3416	365A  8B 1E 0173r		 mov	 bx, word ptr TxCRC
   3417	365E  32 D8			 xor	 bl, al
   3418	3660  32 FF			 xor	 bh, bh
   3419	3662  D1 E3			 shl	 bx, 1
   3420	3664  2E: 8B 8F	3383r		 mov	 cx, word ptr cs:CRCTable[bx]
Turbo Assembler	 Version 4.1	    03/03/26 01:07:02	    Page 61
DCEMLID.ASM



   3421	3669  A1 0173r			 mov	 ax, word ptr TxCRC
   3422	366C  8A C4			 mov	 al, ah		     ; shr ax, 8 - move	high byte to low
   3423	366E  32 E4			 xor	 ah, ah
   3424	3670  33 C1			 xor	 ax, cx
   3425	3672  A3 0173r			 mov	 word ptr TxCRC, ax
   3426
   3427	3675  59			 pop	 cx
   3428	3676  5B			 pop	 bx
   3429	3677  58			 pop	 ax
   3430	3678  C3			 ret
   3431	3679			     UpdateTxCRC ENDP
   3432
   3433				     ;=============================================================================
   3434				     ; CompleteTransmitECB - Complete ECB and remove from queue
   3435				     ; Input: ES:SI = ECB, CompCode already set
   3436				     ;=============================================================================
   3437
   3438	3679			     CompleteTransmitECB PROC
   3439	3679  50			 push	 ax
   3440	367A  53			 push	 bx
   3441	367B  51			 push	 cx
   3442	367C  52			 push	 dx
   3443	367D  1E			 push	 ds
   3444	367E  06			 push	 es
   3445	367F  56			 push	 si
   3446	3680  57			 push	 di
   3447
   3448	3681  8C C8			 mov	 ax, cs		     ; .COM file: CS=DS=ES
   3449	3683  8E D8			 mov	 ds, ax
   3450
   3451					 ; Remove from queue head
   3452	3685  26: 8B 04			 mov	 ax, word ptr es:[si+ECB_Link]
   3453	3688  26: 8B 54	02		 mov	 dx, word ptr es:[si+ECB_Link+2]
   3454	368C  A3 0159r			 mov	 word ptr TxQueueHead, ax
   3455	368F  89 16 015Br		 mov	 word ptr TxQueueHead+2, dx
   3456
   3457					 ; Update count
   3458	3693  FF 0E 0161r		 dec	 TxQueueCount
   3459	3697  75 0C			 jnz	 QueueStillHasItems
   3460
   3461					 ; Queue is now	empty, clear tail too
   3462	3699  C7 06 015Dr 0000		 mov	 word ptr TxQueueTail, 0
   3463	369F  C7 06 015Fr 0000		 mov	 word ptr TxQueueTail+2, 0
   3464
   3465	36A5			     QueueStillHasItems:
   3466					 ; Clear ECB in	use flag
   3467	36A5  26: C6 44	08 00		 mov	 byte ptr es:[si+ECB_InUse], 0
   3468
   3469					 ; Check if there's an ESR (Event Service Routine)
   3470	36AA  26: 83 7C	04 00		 cmp	 word ptr es:[si+ECB_ESR], 0
   3471	36AF  75 07			 jne	 HasESR
   3472	36B1  26: 83 7C	06 00		 cmp	 word ptr es:[si+ECB_ESR+2], 0
   3473	36B6  74 04			 je	 NoESR
   3474
   3475	36B8			     HasESR:
   3476					 ; Call	the ESR
   3477					 ; ES:SI already points	to ECB
Turbo Assembler	 Version 4.1	    03/03/26 01:07:02	    Page 62
DCEMLID.ASM



   3478	36B8  26: FF 5C	04		 call	 dword ptr es:[si+ECB_ESR]
   3479
   3480	36BC			     NoESR:
   3481					 ; Clear current ECB
   3482	36BC  C7 06 0163r 0000		 mov	 word ptr TxCurrentECB,	0
   3483	36C2  C7 06 0165r 0000		 mov	 word ptr TxCurrentECB+2, 0
   3484	36C8  C6 06 0155r 00		 mov	 TxPending, 0
   3485
   3486	36CD  5F			 pop	 di
   3487	36CE  5E			 pop	 si
   3488	36CF  07			 pop	 es
   3489	36D0  1F			 pop	 ds
   3490	36D1  5A			 pop	 dx
   3491	36D2  59			 pop	 cx
   3492	36D3  5B			 pop	 bx
   3493	36D4  58			 pop	 ax
   3494	36D5  C3			 ret
   3495	36D6			     CompleteTransmitECB ENDP
   3496
   3497	36D6			     MLIDControlHandler	PROC FAR
   3498					 ; AL =	function code
   3499	36D6  3C 01			 cmp	 al, MLID_RESET
   3500	36D8  74 11			 je	 DoReset
   3501	36DA  3C 02			 cmp	 al, MLID_SHUTDOWN
   3502	36DC  74 21			 je	 DoShutdown
   3503	36DE  3C 05			 cmp	 al, MLID_GET_STATS
   3504	36E0  74 28			 je	 DoGetStats
   3505	36E2  3C 06			 cmp	 al, MLID_SEND_PKT
   3506	36E4  74 35			 je	 DoSendPacket
   3507	36E6  3C 07			 cmp	 al, MLID_REG_RX
   3508	36E8  74 4E			 je	 DoRegisterRx
   3509	36EA  CB			 retf
   3510
   3511	36EB			     DoReset:
   3512					 ; Reset hardware and buffers
   3513	36EB  E8 F51E			 call	 InitSerialPort
   3514	36EE  C6 06 0176r 00		 mov	 RxState, STATE_IDLE
   3515	36F3  C7 06 0178r 0000		 mov	 RxBufIdx, 0
   3516	36F9  C6 06 0155r 00		 mov	 TxPending, 0
   3517	36FE  CB			 retf
   3518
   3519	36FF			     DoShutdown:
   3520					 ; Disable interrupts
   3521	36FF  8B 16 010Cr		 mov	 dx, CfgData.Port
   3522	3703  83 C2 01			 add	 dx, UART_IER
   3523	3706  32 C0			 xor	 al, al
   3524	3708  EE			 out	 dx, al
   3525	3709  CB			 retf
   3526
   3527	370A			     DoGetStats:
   3528					 ; Return statistics structure
   3529					 ; ES:BX points	to destination
   3530	370A  1E			 push	 ds
   3531	370B  56			 push	 si
   3532	370C  8C C8			 mov	 ax, cs		     ; .COM file: CS=DS=ES
   3533	370E  8E D8			 mov	 ds, ax
   3534	3710  BE 011Er			 lea	 si, Statistics
Turbo Assembler	 Version 4.1	    03/03/26 01:07:02	    Page 63
DCEMLID.ASM



   3535	3713  B9 0020			 mov	 cx, SIZE Stats
   3536	3716  F3> A4			 rep	 movsb
   3537	3718  5E			 pop	 si
   3538	3719  1F			 pop	 ds
   3539	371A  CB			 retf
   3540
   3541	371B			     DoSendPacket:
   3542					 ; ES:SI = ECB to send
   3543					 ; This	is called directly by control handler
   3544					 ; Queue the ECB
   3545	371B  50			 push	 ax
   3546	371C  53			 push	 bx
   3547	371D  1E			 push	 ds
   3548
   3549	371E  8C C8			 mov	 ax, cs		     ; .COM file: CS=DS=ES
   3550	3720  8E D8			 mov	 ds, ax
   3551
   3552					 ; Mark	ECB as in use
   3553	3722  26: C6 44	08 FF		 mov	 byte ptr es:[si+ECB_InUse], 0FFh
   3554
   3555					 ; Queue it
   3556	3727  E8 FD46			 call	 QueueTransmitECB
   3557
   3558					 ; Start transmission if idle
   3559	372A  80 3E 0155r 00		 cmp	 TxPending, 0
   3560	372F  75 03			 jne	 SendPktBusy
   3561	3731  E8 FD8C			 call	 StartNextTransmit
   3562
   3563	3734			     SendPktBusy:
   3564	3734  1F			 pop	 ds
   3565	3735  5B			 pop	 bx
   3566	3736  58			 pop	 ax
   3567	3737  CB			 retf
   3568
   3569	3738			     DoRegisterRx:
   3570					 ; Store receive handler address
   3571	3738  8C 06 0142r		 mov	 RxHandlerSeg, es
   3572	373C  89 1E 0140r		 mov	 RxHandlerOff, bx
   3573	3740  CB			 retf
   3574	3741			     MLIDControlHandler	ENDP
   3575
   3576				     ;=============================================================================
   3577				     ; PrintInstallMessage - Display installation success message
   3578				     ;=============================================================================
   3579
   3580	3741			     PrintInstallMessage PROC
   3581	3741  BA 1EB2r			 lea	 dx, MsgLoaded
   3582	3744  B4 09			 mov	 ah, 09h
   3583	3746  CD 21			 int	 21h
   3584
   3585					 ; Print mode
   3586	3748  80 3E 010Br 00		 cmp	 CfgData.Mode, 0
   3587	374D  74 1D			 je	 PrintSerial
   3588	374F  80 3E 010Br 01		 cmp	 CfgData.Mode, 1
   3589	3754  74 11			 je	 PrintPar4
   3590
   3591					 ; PAR8	mode
Turbo Assembler	 Version 4.1	    03/03/26 01:07:02	    Page 64
DCEMLID.ASM



   3592	3756  80 3E 011Br 00		 cmp	 CfgData.ParMode, 0
   3593	375B  74 05			 je	 PrintPar8EPP
   3594	375D  BA 1EDAr			 lea	 dx, MsgPar8PS2
   3595	3760  EB 0D			 jmp	 PrintModeStr
   3596
   3597	3762			     PrintPar8EPP:
   3598	3762  BA 1ED0r			 lea	 dx, MsgPar8EPP
   3599	3765  EB 08			 jmp	 PrintModeStr
   3600
   3601	3767			     PrintPar4:
   3602	3767  BA 1ECAr			 lea	 dx, MsgPar4
   3603	376A  EB 03			 jmp	 PrintModeStr
   3604
   3605	376C			     PrintSerial:
   3606	376C  BA 1EC2r			 lea	 dx, MsgSerial
   3607
   3608	376F			     PrintModeStr:
   3609	376F  B4 09			 mov	 ah, 09h
   3610	3771  CD 21			 int	 21h
   3611
   3612					 ; Print port
   3613	3773  BA 1EE4r			 lea	 dx, MsgPort
   3614	3776  B4 09			 mov	 ah, 09h
   3615	3778  CD 21			 int	 21h
   3616	377A  A1 010Cr			 mov	 ax, CfgData.Port
   3617	377D  E8 00B9			 call	 PrintHexWord
   3618
   3619					 ; Print IRQ
   3620	3780  BA 1EEAr			 lea	 dx, MsgIRQ
   3621	3783  B4 09			 mov	 ah, 09h
   3622	3785  CD 21			 int	 21h
   3623	3787  33 C0			 xor	 ax, ax
   3624	3789  A0 0119r			 mov	 al, CfgData.IRQNum
   3625	378C  E8 00D9			 call	 PrintDecimal
   3626
   3627					 ; Print MAC address
   3628	378F  BA 1EF0r			 lea	 dx, MsgMAC
   3629	3792  B4 09			 mov	 ah, 09h
   3630	3794  CD 21			 int	 21h
   3631	3796  BE 0113r			 lea	 si, CfgData.MacAddr
   3632	3799  E8 00EE			 call	 PrintMACAddress
   3633
   3634					 ; Print baud rate if serial
   3635	379C  80 3E 010Br 00		 cmp	 CfgData.Mode, 0
   3636	37A1  75 33			 jne	 NoBaud
   3637	37A3  BA 1EF6r			 lea	 dx, MsgBaud
   3638	37A6  B4 09			 mov	 ah, 09h
   3639	37A8  CD 21			 int	 21h
   3640	37AA  A1 010Er			 mov	 ax, word ptr CfgData.BaudRate
   3641	37AD  E8 00B8			 call	 PrintDecimal
   3642
   3643					 ; Print UART type
   3644	37B0  80 3E 011Ar 00		 cmp	 CfgData.UARTType, 0
   3645	37B5  74 05			 je	 Print8250
   3646	37B7  BA 1F05r			 lea	 dx, Msg16550
   3647	37BA  EB 03			 jmp	 PrintUARTType
   3648
Turbo Assembler	 Version 4.1	    03/03/26 01:07:02	    Page 65
DCEMLID.ASM



   3649	37BC			     Print8250:
   3650	37BC  BA 1EFDr			 lea	 dx, Msg8250
   3651
   3652	37BF			     PrintUARTType:
   3653	37BF  B4 09			 mov	 ah, 09h
   3654	37C1  CD 21			 int	 21h
   3655
   3656					 ; Print flow control setting
   3657	37C3  80 3E 0112r 00		 cmp	 CfgData.FlowCtrl, 0
   3658	37C8  74 05			 je	 PrintFlowRTS
   3659	37CA  BA 1F1Cr			 lea	 dx, MsgFlowXON
   3660	37CD  EB 03			 jmp	 PrintFlowStr
   3661	37CF			     PrintFlowRTS:
   3662	37CF  BA 1F0Er			 lea	 dx, MsgFlowRTS
   3663	37D2			     PrintFlowStr:
   3664	37D2  B4 09			 mov	 ah, 09h
   3665	37D4  CD 21			 int	 21h
   3666
   3667	37D6			     NoBaud:
   3668					 ; Print memory	location
   3669	37D6  80 3E 2E1Fr 01		 cmp	 UMBAllocated, 1
   3670	37DB  74 05			 je	 PrintUMBMsg
   3671	37DD  BA 1F32r			 lea	 dx, MsgConv
   3672	37E0  EB 03			 jmp	 PrintMemMsg
   3673
   3674	37E2			     PrintUMBMsg:
   3675	37E2  BA 1F2Br			 lea	 dx, MsgUMB
   3676
   3677	37E5			     PrintMemMsg:
   3678	37E5  B4 09			 mov	 ah, 09h
   3679	37E7  CD 21			 int	 21h
   3680
   3681					 ; Print newline
   3682	37E9  BA 1F42r			 lea	 dx, MsgCRLF
   3683	37EC  B4 09			 mov	 ah, 09h
   3684	37EE  CD 21			 int	 21h
   3685
   3686	37F0  C3			 ret
   3687	37F1			     PrintInstallMessage ENDP
   3688
   3689				     ;=============================================================================
   3690				     ; PrintDetectionInfo - Print port/mode before hardware detection
   3691				     ;=============================================================================
   3692
   3693	37F1			     PrintDetectionInfo	PROC
   3694	37F1  50			 push	 ax
   3695	37F2  52			 push	 dx
   3696
   3697					 ; Print "Detecting hardware at	port "
   3698	37F3  BA 20FFr			 lea	 dx, MsgDbgPort
   3699	37F6  B4 09			 mov	 ah, 09h
   3700	37F8  CD 21			 int	 21h
   3701
   3702					 ; Print port value in hex
   3703	37FA  A1 010Cr			 mov	 ax, CfgData.Port
   3704	37FD  E8 0039			 call	 PrintHexWord
   3705
Turbo Assembler	 Version 4.1	    03/03/26 01:07:02	    Page 66
DCEMLID.ASM



   3706					 ; Print " mode="
   3707	3800  BA 211Br			 lea	 dx, MsgDbgMode
   3708	3803  B4 09			 mov	 ah, 09h
   3709	3805  CD 21			 int	 21h
   3710
   3711					 ; Print mode name
   3712	3807  80 3E 010Br 00		 cmp	 CfgData.Mode, 0
   3713	380C  74 10			 je	 PrintModeSerial
   3714	380E  80 3E 010Br 01		 cmp	 CfgData.Mode, 1
   3715	3813  74 0E			 je	 PrintModePar4
   3716	3815  80 3E 010Br 02		 cmp	 CfgData.Mode, 2
   3717	381A  74 0C			 je	 PrintModePar8
   3718	381C  EB 11			 jmp	 PrintModeEnd
   3719
   3720	381E			     PrintModeSerial:
   3721	381E  BA 2122r			 lea	 dx, MsgDbgSerial
   3722	3821  EB 08			 jmp	 PrintModeName
   3723	3823			     PrintModePar4:
   3724	3823  BA 2129r			 lea	 dx, MsgDbgPar4
   3725	3826  EB 03			 jmp	 PrintModeName
   3726	3828			     PrintModePar8:
   3727	3828  BA 212Er			 lea	 dx, MsgDbgPar8
   3728
   3729	382B			     PrintModeName:
   3730	382B  B4 09			 mov	 ah, 09h
   3731	382D  CD 21			 int	 21h
   3732
   3733	382F			     PrintModeEnd:
   3734					 ; Print newline
   3735	382F  BA 1F42r			 lea	 dx, MsgCRLF
   3736	3832  B4 09			 mov	 ah, 09h
   3737	3834  CD 21			 int	 21h
   3738
   3739	3836  5A			 pop	 dx
   3740	3837  58			 pop	 ax
   3741	3838  C3			 ret
   3742	3839			     PrintDetectionInfo	ENDP
   3743
   3744				     ;=============================================================================
   3745				     ; Helper Printing Functions
   3746				     ;=============================================================================
   3747
   3748	3839			     PrintHexWord PROC
   3749					 ; Print AX as hex
   3750	3839  50			 push	 ax
   3751	383A  8A C4			 mov	 al, ah
   3752	383C  E8 0005			 call	 PrintHexByte
   3753	383F  58			 pop	 ax
   3754	3840  E8 0001			 call	 PrintHexByte
   3755	3843  C3			 ret
   3756	3844			     PrintHexWord ENDP
   3757
   3758	3844			     PrintHexByte PROC
   3759					 ; Print AL as hex
   3760	3844  50			 push	 ax
   3761	3845  51			 push	 cx
   3762	3846  B1 04			 mov	 cl, 4
Turbo Assembler	 Version 4.1	    03/03/26 01:07:02	    Page 67
DCEMLID.ASM



   3763	3848  D2 E8			 shr	 al, cl
   3764	384A  E8 0008			 call	 PrintHexDigit
   3765	384D  59			 pop	 cx
   3766	384E  58			 pop	 ax
   3767	384F  24 0F			 and	 al, 0Fh
   3768	3851  E8 0001			 call	 PrintHexDigit
   3769	3854  C3			 ret
   3770	3855			     PrintHexByte ENDP
   3771
   3772	3855			     PrintHexDigit PROC
   3773					 ; Print hex digit in AL
   3774	3855  3C 0A			 cmp	 al, 10
   3775	3857  72 04			 jb	 HexDigitNumeric
   3776	3859  04 37			 add	 al, 'A' - 10
   3777	385B  EB 02			 jmp	 HexDigitPrint
   3778	385D			     HexDigitNumeric:
   3779	385D  04 30			 add	 al, '0'
   3780	385F			     HexDigitPrint:
   3781	385F  52			 push	 dx
   3782	3860  8A D0			 mov	 dl, al
   3783	3862  B4 02			 mov	 ah, 02h
   3784	3864  CD 21			 int	 21h
   3785	3866  5A			 pop	 dx
   3786	3867  C3			 ret
   3787	3868			     PrintHexDigit ENDP
   3788
   3789	3868			     PrintDecimal PROC
   3790					 ; Print AX as decimal
   3791	3868  50			 push	 ax
   3792	3869  53			 push	 bx
   3793	386A  51			 push	 cx
   3794	386B  52			 push	 dx
   3795
   3796	386C  33 C9			 xor	 cx, cx
   3797	386E  BB 000A			 mov	 bx, 10
   3798
   3799	3871			     DecimalLoop:
   3800	3871  33 D2			 xor	 dx, dx
   3801	3873  F7 F3			 div	 bx
   3802	3875  52			 push	 dx
   3803	3876  41			 inc	 cx
   3804	3877  85 C0			 test	 ax, ax
   3805	3879  75 F6			 jnz	 DecimalLoop
   3806
   3807	387B			     PrintDigits:
   3808	387B  5A			 pop	 dx
   3809	387C  80 C2 30			 add	 dl, '0'
   3810	387F  B4 02			 mov	 ah, 02h
   3811	3881  CD 21			 int	 21h
   3812	3883  E2 F6			 loop	 PrintDigits
   3813
   3814	3885  5A			 pop	 dx
   3815	3886  59			 pop	 cx
   3816	3887  5B			 pop	 bx
   3817	3888  58			 pop	 ax
   3818	3889  C3			 ret
   3819	388A			     PrintDecimal ENDP
Turbo Assembler	 Version 4.1	    03/03/26 01:07:02	    Page 68
DCEMLID.ASM



   3820
   3821	388A			     PrintMACAddress PROC
   3822					 ; Print MAC address at	DS:SI
   3823	388A  51			 push	 cx
   3824	388B  B9 0006			 mov	 cx, 6
   3825	388E			     PrintMACLoop:
   3826	388E  AC			 lodsb
   3827	388F  E8 FFB2			 call	 PrintHexByte
   3828	3892  49			 dec	 cx
   3829	3893  74 0A			 jz	 PrintMACDone
   3830	3895  52			 push	 dx
   3831	3896  B2 2D			 mov	 dl, '-'
   3832	3898  B4 02			 mov	 ah, 02h
   3833	389A  CD 21			 int	 21h
   3834	389C  5A			 pop	 dx
   3835	389D  EB EF			 jmp	 PrintMACLoop
   3836	389F			     PrintMACDone:
   3837	389F  59			 pop	 cx
   3838	38A0  C3			 ret
   3839	38A1			     PrintMACAddress ENDP
   3840
   3841				     ;=============================================================================
   3842				     ; UnloadDriver - Unload the TSR driver
   3843				     ;=============================================================================
   3844
   3845	38A1			     UnloadDriver PROC
   3846					 ; Check if driver is loaded via multiplex (subfunction	01h to get info)
   3847	38A1  B8 C0A1			 mov	 ax, MULTIPLEX_ID + 01h	 ; AH=ID, AL=01h (get info)
   3848	38A4  CD 2F			 int	 2Fh
   3849	38A6  3C FF			 cmp	 al, 0FFh
   3850	38A8  74 03 E9 00F7		 jne	 NotLoaded
   3851
   3852					 ; ES =	TSR segment, BX	= board	number
   3853	38AD  8C 06 229Cr		 mov	 Unload_TSRSeg,	es
   3854	38B1  89 1E 229Er		 mov	 Unload_TSRBoardNum, bx
   3855
   3856					 ; Check if driver is busy (access TSR's data via ES)
   3857	38B5  26: 80 3E	013Fr 01	 cmp	 byte ptr es:[DriverActive], 1
   3858	38BB  75 03 E9 00F0		 je	 DriverBusy
   3859
   3860					 ; Check if transmit pending
   3861	38C0  26: 80 3E	0155r 01	 cmp	 byte ptr es:[TxPending], 1
   3862	38C6  75 03 E9 00E5		 je	 DriverBusy
   3863
   3864					 ; Save	TSR config data	for later use
   3865	38CB  26: A1 010Cr		 mov	 ax, es:[CfgData.Port]
   3866	38CF  A3 22A0r			 mov	 Unload_TSRPort, ax
   3867	38D2  26: A0 010Br		 mov	 al, es:[CfgData.Mode]
   3868	38D6  A2 22A2r			 mov	 Unload_TSRMode, al
   3869	38D9  26: A0 0119r		 mov	 al, es:[CfgData.IRQNum]
   3870	38DD  A2 22A3r			 mov	 Unload_TSRIRQNum, al
   3871
   3872					 ; ===== CHECK IF WE'RE	THE LAST INT 2FH HANDLER =====
   3873					 ; Get current INT 2Fh vector
   3874	38E0  B8 352F			 mov	 ax, 352Fh
   3875	38E3  CD 21			 int	 21h			 ; ES:BX = current INT 2Fh handler
   3876
Turbo Assembler	 Version 4.1	    03/03/26 01:07:02	    Page 69
DCEMLID.ASM



   3877					 ; Compare with	TSR's Int2FHandler address
   3878	38E5  A1 229Cr			 mov	 ax, Unload_TSRSeg
   3879	38E8  81 FB 31B3r		 cmp	 bx, OFFSET Int2FHandler ; Check offset
   3880	38EC  74 03 E9 00CB		 jne	 NotLastHandler
   3881	38F1  8C C1			 mov	 cx, es
   3882	38F3  3B C8			 cmp	 cx, ax			 ; Check segment
   3883	38F5  74 03 E9 00C2		 jne	 NotLastHandler
   3884
   3885					 ; Restore ES to TSR segment for further use
   3886	38FA  8E 06 229Cr		 mov	 es, Unload_TSRSeg
   3887
   3888					 ; ===== DEREGISTER FROM LSL =====
   3889					 ; Call	DeregisterMLID via LSL MLID Support entry point
   3890					 ; The entry point is in the TSR's LSLInfoBuf.LSLEntryPoint
   3891					 ; BX =	0006h (DeregisterMLID =	MLIDSUP_DEREGISTER_MLID), AX = board number
   3892					 ; MUST	use ES:	override since DS points to unloader, not TSR!
   3893	38FE  26: A1 014Ar		 mov	 ax, es:[LSLBoardNum]	 ; Get board number from TSR
   3894	3902  BB 0006			 mov	 bx, 0006h		 ; DeregisterMLID function (6, not 2!)
   3895	3905  26: FF 1E	2F16r		 call	 dword ptr es:[LSLInfoBuf.LSLEntryPoint]
   3896
   3897					 ; ===== CALL MLID SHUTDOWN (PERMANENT)	=====
   3898					 ; Call	the TSR's MLIDShutdownProc to clear internal state
   3899					 ; CX=0000h indicates permanent	shutdown (for cleanup only, already deregistered)
   3900	390A  8E 06 229Cr		 mov	 es, Unload_TSRSeg	 ; Restore ES in case LSL call modified	it
   3901	390E  33 C9			 xor	 cx, cx			 ; CX=0000h = permanent	shutdown
   3902	3910  26: FF 1E	2F36r		 call	 dword ptr es:[MLIDFunctions.MLIDShutdown]
   3903
   3904					 ; ===== DISABLE HARDWARE INTERRUPTS =====
   3905	3915  8B 16 22A0r		 mov	 dx, Unload_TSRPort
   3906	3919  80 3E 22A2r 00		 cmp	 Unload_TSRMode, 0
   3907	391E  75 08			 jne	 DisableParallel
   3908
   3909					 ; Disable serial interrupts
   3910	3920  83 C2 01			 add	 dx, UART_IER
   3911	3923  32 C0			 xor	 al, al
   3912	3925  EE			 out	 dx, al
   3913	3926  EB 06			 jmp	 InterruptsDisabled
   3914
   3915	3928			     DisableParallel:
   3916					 ; Disable parallel interrupts
   3917	3928  83 C2 02			 add	 dx, LPT_CONTROL
   3918	392B  B0 04			 mov	 al, LPT_CTRL_INIT
   3919	392D  EE			 out	 dx, al
   3920
   3921	392E			     InterruptsDisabled:
   3922					 ; ===== DISABLE IRQ AT	PIC =====
   3923	392E  A0 22A3r			 mov	 al, Unload_TSRIRQNum
   3924	3931  3C 08			 cmp	 al, 8
   3925	3933  72 12			 jb	 DisablePIC1
   3926
   3927					 ; IRQ 8-15: Use slave PIC (port 0A1h)
   3928	3935  2C 08			 sub	 al, 8
   3929	3937  8A C8			 mov	 cl, al
   3930	3939  B0 01			 mov	 al, 1
   3931	393B  D2 E0			 shl	 al, cl			 ; AL =	mask bit for this IRQ
   3932	393D  8A E0			 mov	 ah, al			 ; Save	mask bit
   3933	393F  E4 A1			 in	 al, 0A1h
Turbo Assembler	 Version 4.1	    03/03/26 01:07:02	    Page 70
DCEMLID.ASM



   3934	3941  0A C4			 or	 al, ah			 ; Set the mask	bit to disable IRQ
   3935	3943  E6 A1			 out	 0A1h, al
   3936	3945  EB 0E			 jmp	 IRQDisabled
   3937
   3938	3947			     DisablePIC1:
   3939					 ; IRQ 0-7: Use	master PIC (port 021h)
   3940	3947  8A C8			 mov	 cl, al
   3941	3949  B0 01			 mov	 al, 1
   3942	394B  D2 E0			 shl	 al, cl			 ; AL =	mask bit for this IRQ
   3943	394D  8A E0			 mov	 ah, al			 ; Save	mask bit
   3944	394F  E4 21			 in	 al, 021h
   3945	3951  0A C4			 or	 al, ah			 ; Set the mask	bit to disable IRQ
   3946	3953  E6 21			 out	 021h, al
   3947
   3948	3955			     IRQDisabled:
   3949					 ; ===== RESTORE INTERRUPT VECTORS =====
   3950					 ; Access TSR's	saved vectors via Unload_TSRSeg
   3951	3955  8E 06 229Cr		 mov	 es, Unload_TSRSeg
   3952
   3953					 ; Restore INT 2Fh vector
   3954	3959  26: 8B 16	014Cr		 mov	 dx, es:[OldInt2F_Off]
   3955	395E  26: A1 014Er		 mov	 ax, es:[OldInt2F_Seg]
   3956	3962  1E			 push	 ds
   3957	3963  8E D8			 mov	 ds, ax
   3958	3965  B8 252F			 mov	 ax, 252Fh
   3959	3968  CD 21			 int	 21h
   3960	396A  1F			 pop	 ds
   3961
   3962					 ; Restore hardware interrupt vector
   3963					 ; First get the old vector from TSR
   3964	396B  8E 06 229Cr		 mov	 es, Unload_TSRSeg
   3965	396F  26: 8B 16	0150r		 mov	 dx, es:[OldHwInt_Off]
   3966	3974  26: 8B 1E	0152r		 mov	 bx, es:[OldHwInt_Seg]	 ; BX =	segment
   3967
   3968					 ; Calculate interrupt number
   3969	3979  A0 22A3r			 mov	 al, Unload_TSRIRQNum
   3970	397C  3C 08			 cmp	 al, 8
   3971	397E  72 06			 jb	 RestoreBelow8
   3972	3980  2C 08			 sub	 al, 8
   3973	3982  04 70			 add	 al, 70h
   3974	3984  EB 02			 jmp	 DoRestore
   3975
   3976	3986			     RestoreBelow8:
   3977	3986  04 08			 add	 al, 08h
   3978
   3979	3988			     DoRestore:
   3980					 ; AL =	interrupt number, BX:DX	= old vector
   3981	3988  1E			 push	 ds
   3982	3989  8E DB			 mov	 ds, bx			 ; DS =	old segment
   3983	398B  B4 25			 mov	 ah, 25h
   3984	398D  CD 21			 int	 21h
   3985	398F  1F			 pop	 ds
   3986
   3987					 ; ===== FREE TSR MEMORY =====
   3988	3990  8E 06 229Cr		 mov	 es, Unload_TSRSeg
   3989	3994  B4 49			 mov	 ah, 49h		 ; Free	memory block
   3990	3996  CD 21			 int	 21h
Turbo Assembler	 Version 4.1	    03/03/26 01:07:02	    Page 71
DCEMLID.ASM



   3991
   3992					 ; Print unload	message
   3993	3998  BA 2200r			 lea	 dx, MsgUnloaded
   3994	399B  B4 09			 mov	 ah, 09h
   3995	399D  CD 21			 int	 21h
   3996
   3997	399F  B8 4C00			 mov	 ax, 4C00h
   3998	39A2  CD 21			 int	 21h
   3999
   4000	39A4			     NotLoaded:
   4001	39A4  BA 2220r			 lea	 dx, MsgErrNotLoaded
   4002	39A7  B4 09			 mov	 ah, 09h
   4003	39A9  CD 21			 int	 21h
   4004	39AB  B8 4C01			 mov	 ax, 4C01h
   4005	39AE  CD 21			 int	 21h
   4006
   4007	39B0			     DriverBusy:
   4008	39B0  BA 223Cr			 lea	 dx, MsgErrBusy
   4009	39B3  B4 09			 mov	 ah, 09h
   4010	39B5  CD 21			 int	 21h
   4011	39B7  B8 4C01			 mov	 ax, 4C01h
   4012	39BA  CD 21			 int	 21h
   4013
   4014	39BC			     NotLastHandler:
   4015	39BC  BA 2261r			 lea	 dx, MsgErrNotLast
   4016	39BF  B4 09			 mov	 ah, 09h
   4017	39C1  CD 21			 int	 21h
   4018	39C3  B8 4C01			 mov	 ax, 4C01h
   4019	39C6  CD 21			 int	 21h
   4020	39C8			     UnloadDriver ENDP
   4021
   4022				     ;=============================================================================
   4023				     ; 32-bit Arithmetic Helper	Procedures for 8086 Compatibility
   4024				     ;=============================================================================
   4025
   4026				     ; Inc32 - Increment a DWORD memory	operand
   4027				     ; Input: BX = offset of DWORD to increment
   4028				     ; Destroys: AX, BX
   4029	39C8			     Inc32 PROC
   4030	39C8  83 07 01			 add	 word ptr [bx],	1    ; Increment low word
   4031	39CB  83 57 02 00		 adc	 word ptr [bx+2], 0  ; Add carry to high word
   4032	39CF  C3			 ret
   4033	39D0			     Inc32 ENDP
   4034
   4035				     ; Add32 - Add DX:AX to a DWORD memory operand
   4036				     ; Input: DX:AX = 32-bit value to add
   4037				     ;	      BX = offset of DWORD destination
   4038				     ; Destroys: none (all registers preserved)
   4039	39D0			     Add32 PROC
   4040	39D0  50			 push	 ax
   4041	39D1  52			 push	 dx
   4042	39D2  01 07			 add	 word ptr [bx],	ax   ; Add low word
   4043	39D4  11 57 02			 adc	 word ptr [bx+2], dx ; Add high	word with carry
   4044	39D7  5A			 pop	 dx
   4045	39D8  58			 pop	 ax
   4046	39D9  C3			 ret
   4047	39DA			     Add32 ENDP
Turbo Assembler	 Version 4.1	    03/03/26 01:07:02	    Page 72
DCEMLID.ASM



   4048
   4049				     ; ZeroExtend16to32	- Zero-extend AX to DX:AX (32-bit)
   4050				     ; Input: AX = 16-bit value
   4051				     ; Output: DX:AX = 32-bit zero-extended value
   4052				     ; Destroys: DX
   4053	39DA			     ZeroExtend16to32 PROC
   4054	39DA  33 D2			 xor	 dx, dx		     ; Clear high word
   4055	39DC  C3			 ret
   4056	39DD			     ZeroExtend16to32 ENDP
   4057
   4058				     ; LookupBaudDivisor - Find	divisor	for configured baud rate
   4059				     ; Input: CfgData.BaudRate (DWORD)
   4060				     ; Output: BX = divisor value
   4061				     ; Destroys: AX, CX, SI
   4062	39DD			     LookupBaudDivisor PROC
   4063	39DD  57			 push	 di
   4064	39DE  BE 26ADr			 lea	 si, BaudTable
   4065
   4066	39E1			     BaudLoop:
   4067					 ; Load	baud rate from table (DWORD)
   4068	39E1  8B 04			 mov	 ax, word ptr [si]
   4069	39E3  8B 4C 02			 mov	 cx, word ptr [si+2]
   4070
   4071					 ; Check for end marker	(baud rate = 0)
   4072	39E6  0B C1			 or	 ax, cx
   4073	39E8  74 1B			 jz	 BaudNotFound
   4074
   4075					 ; Compare with	configured baud	rate
   4076	39EA  8B 04			 mov	 ax, word ptr [si]
   4077	39EC  8B 4C 02			 mov	 cx, word ptr [si+2]
   4078	39EF  3B 06 010Er		 cmp	 ax, word ptr CfgData.BaudRate
   4079	39F3  75 0B			 jne	 BaudNext
   4080	39F5  3B 0E 0110r		 cmp	 cx, word ptr CfgData.BaudRate+2
   4081	39F9  75 05			 jne	 BaudNext
   4082
   4083					 ; Found match - get divisor
   4084	39FB  8B 5C 04			 mov	 bx, word ptr [si+4]
   4085	39FE  5F			 pop	 di
   4086	39FF  C3			 ret
   4087
   4088	3A00			     BaudNext:
   4089	3A00  83 C6 06			 add	 si, 6		     ; Move to next entry (4 bytes baud	+ 2 bytes divisor)
   4090	3A03  EB DC			 jmp	 BaudLoop
   4091
   4092	3A05			     BaudNotFound:
   4093					 ; Default to 38400 baud if not	found (divisor = 3)
   4094	3A05  BB 0003			 mov	 bx, 3
   4095	3A08  5F			 pop	 di
   4096	3A09  C3			 ret
   4097	3A0A			     LookupBaudDivisor ENDP
   4098
   4099				     ;=============================================================================
   4100				     ; End of Resident Code
   4101				     ;=============================================================================
   4102
   4103	3A0A			     ResidentEnd:
   4104
Turbo Assembler	 Version 4.1	    03/03/26 01:07:02	    Page 73
DCEMLID.ASM



   4105				     ; Calculate resident size
   4106	      =390A		     ResidentSize EQU (ResidentEnd - Start)
   4107
   4108	3A0A			     CODE    ENDS
   4109
   4110					     END Start
Turbo Assembler	 Version 4.1	    03/03/26 01:07:02	    Page 74
Symbol Table




Symbol Name			  Type	 Value

??DATE				  Text	 "03/03/26"
??FILENAME			  Text	 "DCEMLID "
??TIME				  Text	 "01:07:01"
??VERSION			  Number 040A
@CPU				  Text	 0101H
@CURSEG				  Text	 CODE
@FILENAME			  Text	 DCEMLID
@WORDSIZE			  Text	 2
ACKMISMATCH			  Near	 CODE:3228
ACK_CHAR			  Number 0006
ADD32				  Near	 CODE:39D0
ALLOCATEUMB			  Near	 CODE:2E22
ALLOCUMBDONE			  Near	 CODE:2E75
ALREADYLOADED			  Near	 CODE:2B8A
BAUDLOOP			  Near	 CODE:39E1
BAUDNEXT			  Near	 CODE:3A00
BAUDNOTFOUND			  Near	 CODE:3A05
BAUDTABLE			  Near	 CODE:26AD
BAUDTABLESIZE			  Number 0005
BUILDDONE			  Near	 CODE:3583
BUILDERROR			  Near	 CODE:3581
BUILDFRAGLOOP			  Near	 CODE:353A
BUILDFRAGNEXT			  Near	 CODE:356C
BUILDTRANSMITFRAME		  Near	 CODE:3512
CALCCRCLOOP			  Near	 CODE:364A
CALCULATEFRAMECRC		  Near	 CODE:3640
CFGDATA				  Struct CODE:010B CONFIG
CFGKEYBAUD			  Byte	 CODE:1E4C
CFGKEYFLOW			  Byte	 CODE:1E51
CFGKEYINT			  Byte	 CODE:1E48
CFGKEYMODE			  Byte	 CODE:1E3E
CFGKEYNODE			  Byte	 CODE:1E56
CFGKEYPORT			  Byte	 CODE:1E43
CFGVALPAR4			  Byte	 CODE:1E62
CFGVALPAR8			  Byte	 CODE:1E67
CFGVALRTS			  Byte	 CODE:1E6C
CFGVALSERIAL			  Byte	 CODE:1E5B
CFGVALXON			  Byte	 CODE:1E70
CMDDEBUG			  Byte	 CODE:2768
CMDHELP				  Byte	 CODE:2766
CMDUNLOAD			  Byte	 CODE:2767
COMPARELSLKEYWORD		  Near	 CODE:28F1
COMPARELSLVALUE			  Near	 CODE:291C
COMPLETETRANSMITECB		  Near	 CODE:3679
COMPLSLKEYLOOP			  Near	 CODE:28F3
COMPLSLKEYMATCH			  Near	 CODE:290C
COMPLSLKEYNOMATCH		  Near	 CODE:2917
COMPLSLVALLOOP			  Near	 CODE:291E
COMPLSLVALMATCH			  Near	 CODE:2946
COMPLSLVALNOMATCH		  Near	 CODE:2951
CONFIGDONE			  Near	 CODE:27E0
CONFIGERROR			  Near	 CODE:27EC
CRCTABLE			  Near	 CODE:3383
DECIMALLOOP			  Near	 CODE:3871
Turbo Assembler	 Version 4.1	    03/03/26 01:07:02	    Page 75
Symbol Table



DELIVERFRAMETOLSL		  Near	 CODE:33EC
DISABLEPARALLEL			  Near	 CODE:3928
DISABLEPIC1			  Near	 CODE:3947
DOGETSTATS			  Near	 CODE:370A
DOREGISTERRX			  Near	 CODE:3738
DORESET				  Near	 CODE:36EB
DORESTORE			  Near	 CODE:3988
DOSENDPACKET			  Near	 CODE:371B
DOSHUTDOWN			  Near	 CODE:36FF
DOSTOOOLD			  Near	 CODE:2B9C
DRIVERACTIVE			  Byte	 CODE:013F
DRIVERBUSY			  Near	 CODE:39B0
DRIVERLOADED			  Byte	 CODE:013E
DRIVER_NAME			  Byte	 CODE:0103
DRIVER_VERSION			  Number 0100
DUPLICATEFRAME			  Near	 CODE:33E8
ECB_BAD_PKT			  Number 00FE
ECB_CANCELLED			  Number 00FC
ECB_COMPCODE			  Number 0009
ECB_DRIVERWORK			  Number 0010
ECB_ESR				  Number 0004
ECB_FRAGCOUNT			  Number 0022
ECB_FRAGLIST			  Number 0024
ECB_HARDWARE			  Number 00FD
ECB_IMMADDR			  Number 001C
ECB_INUSE			  Number 0008
ECB_IPXWORK			  Number 000C
ECB_LINK			  Number 0000
ECB_OVERFLOW			  Number 00FF
ECB_SOCKET			  Number 000A
ECB_SUCCESS			  Number 0000
ENABLEDONE			  Near	 CODE:2EDD
ENABLEPIC1			  Near	 CODE:2ECF
ESCAPEESC			  Near	 CODE:3604
ESCAPESTART			  Near	 CODE:35F8
ESCAPEXOFF			  Near	 CODE:361C
ESCAPEXON			  Near	 CODE:3610
ESC_ESC				  Number 00DD
ESC_START			  Number 00DC
ESC_XOFF			  Number 00DF
ESC_XON				  Number 00DE
EXITERROR			  Near	 CODE:2703
FCR_CLEAR			  Number 0006
FCR_ENABLE			  Number 0001
FCR_TRIGGER_8			  Number 0080
FRAG_ADDR			  Number 0000
FRAG_SIZE			  Number 0004
FRAMEBUFFER			  Byte	 CODE:197E
FRAMEERROR			  Near	 CODE:3350
FRAMEESCAPE			  Near	 CODE:32D1
FRAMEMEDIATYPESTR		  Byte	 CODE:2F06
FRAMESTART			  Near	 CODE:32BD
FRAME_ESC			  Number 00DB
FRAME_START			  Number 00C0
GENERATERANDOMMAC		  Near	 CODE:2A89
GETCONFIGFROMLSL		  Near	 CODE:2769
HANDLEACK			  Near	 CODE:31F2
Turbo Assembler	 Version 4.1	    03/03/26 01:07:02	    Page 76
Symbol Table



HARDWAREINITDONE		  Near	 CODE:2B28
HASEPP				  Near	 CODE:2DF1
HASESR				  Near	 CODE:36B8
HASHANDLER			  Near	 CODE:3402
HASPACKET			  Near	 CODE:34D4
HELPTEXT			  Byte	 CODE:22A4
HEXDIGITNUMERIC			  Near	 CODE:385D
HEXDIGITPRINT			  Near	 CODE:385F
HEXDIGITTOVALUE			  Near	 CODE:2A43
HEXISDIGIT			  Near	 CODE:2A5A
HEXNOTDIGIT			  Near	 CODE:2A5E
HOOKHARDWAREINTERRUPT		  Near	 CODE:2E79
HOOKIRQ				  Near	 CODE:2E8D
HOOKSERIAL			  Near	 CODE:2EAC
INC32				  Near	 CODE:39C8
INITERROR			  Near	 CODE:2BCC
INITERRORLSL			  Near	 CODE:2BEC
INITERRORLSLNORESTORE		  Near	 CODE:2C03
INITERRORNORESTORE		  Near	 CODE:2BE3
INITPARALLEL			  Near	 CODE:2B20
INITPARALLELPORT		  Near	 CODE:2DBB
INITSERIAL			  Near	 CODE:2B06
INITSERIALPORT			  Near	 CODE:2C0C
INSTALLDRIVER			  Near	 CODE:2ABB
INT2FHANDLER			  Far	 CODE:31B3
INTERRUPTSDISABLED		  Near	 CODE:392E
IRQBELOW8			  Near	 CODE:2E8B
IRQDISABLED			  Near	 CODE:3955
IS16550				  Near	 CODE:2D42
LCR_8N1				  Number 0003
LCR_DLAB			  Number 0080
LOOKUPBAUDDIVISOR		  Near	 CODE:39DD
LPT_CONTROL			  Number 0002
LPT_CTRL_AUTOFD			  Number 0002
LPT_CTRL_BIDIR			  Number 0020
LPT_CTRL_INIT			  Number 0004
LPT_CTRL_IRQ			  Number 0010
LPT_CTRL_SELECT			  Number 0008
LPT_CTRL_STROBE			  Number 0001
LPT_DATA			  Number 0000
LPT_ECR				  Number 0402
LPT_EPP_ADDR			  Number 0003
LPT_EPP_DATA			  Number 0004
LPT_STATUS			  Number 0001
LSLBOARDNUM			  Word	 CODE:014A
LSLENTRYOFF			  Word	 CODE:0144
LSLENTRYSEG			  Word	 CODE:0146
LSLINCOMPAT			  Near	 CODE:2BA5
LSLINFOBUF			  Struct CODE:2F16 LSLINFOBLOCK
LSLNOTLOADED			  Near	 CODE:2B93
LSLVERSION			  Word	 CODE:0148
LSL_CHECK			  Number C000
LSL_GET_CONFIG			  Number C003
LSL_REGISTER			  Number C001
MAIN				  Near	 CODE:26CF
MAX_RETRIES			  Number 0002
MCR_DTR				  Number 0001
Turbo Assembler	 Version 4.1	    03/03/26 01:07:02	    Page 77
Symbol Table



MCR_OUT2			  Number 0008
MCR_RTS				  Number 0002
MEMORYSEGMENT			  Word	 CODE:2E20
MLIDADDMULTICAST		  Far	 CODE:3190
MLIDCONFIGTABLE			  Struct CODE:2F4A MLIDCONFIG
MLIDCONTROLHANDLER		  Far	 CODE:36D6
MLIDDELMULTICAST		  Far	 CODE:3194
MLIDFUNCTIONS			  Struct CODE:2F2A MLIDFUNCTABLE
MLIDGETSTATS			  Far	 CODE:3188
MLIDINFOBLOCKDATA		  Struct CODE:2F1E MLIDINFOBLOCK
MLIDRECEIVEHANDLER		  Far	 CODE:3448
MLIDRESETPROC			  Far	 CODE:31A0
MLIDSHUTDOWNPROC		  Far	 CODE:3198
MLIDTRANSMITHANDLER		  Far	 CODE:3449
MLID_GET_STATS			  Number 0005
MLID_REG_RX			  Number 0007
MLID_RESET			  Number 0001
MLID_SEND_PKT			  Number 0006
MLID_SHUTDOWN			  Number 0002
MSG16550			  Byte	 CODE:1F05
MSG8250				  Byte	 CODE:1EFD
MSGBANNER			  Byte	 CODE:1E74
MSGBAUD				  Byte	 CODE:1EF6
MSGCONV				  Byte	 CODE:1F32
MSGCRLF				  Byte	 CODE:1F42
MSGDBGCALLLSL			  Byte	 CODE:21C0
MSGDBGFAIL			  Byte	 CODE:2152
MSGDBGHOOKIRQ			  Byte	 CODE:217B
MSGDBGHWINIT			  Byte	 CODE:2168
MSGDBGLCR			  Byte	 CODE:2133
MSGDBGLSLFAIL			  Byte	 CODE:21A2
MSGDBGLSLRET			  Byte	 CODE:21AF
MSGDBGLSLVER			  Byte	 CODE:21B3
MSGDBGMODE			  Byte	 CODE:211B
MSGDBGOK			  Byte	 CODE:214C
MSGDBGPAR4			  Byte	 CODE:2129
MSGDBGPAR8			  Byte	 CODE:212E
MSGDBGPORT			  Byte	 CODE:20FF
MSGDBGREAD			  Byte	 CODE:2145
MSGDBGREGLSL			  Byte	 CODE:218A
MSGDBGSERIAL			  Byte	 CODE:2122
MSGDBGTEST1			  Byte	 CODE:215A
MSGDBGTEST2			  Byte	 CODE:2161
MSGDBGWRITE			  Byte	 CODE:213D
MSGERRBUSY			  Byte	 CODE:223C
MSGERRCONFIG			  Byte	 CODE:1FD6
MSGERRDOS			  Byte	 CODE:208F
MSGERRIRQ			  Byte	 CODE:203D
MSGERRLOADED			  Byte	 CODE:201D
MSGERRLSL			  Byte	 CODE:1FA9
MSGERRLSLREG			  Byte	 CODE:21DE
MSGERRLSLVER			  Byte	 CODE:20C4
MSGERRNOTLAST			  Byte	 CODE:2261
MSGERRNOTLOADED			  Byte	 CODE:2220
MSGERRPORT			  Byte	 CODE:205D
MSGFLOWRTS			  Byte	 CODE:1F0E
MSGFLOWXON			  Byte	 CODE:1F1C
Turbo Assembler	 Version 4.1	    03/03/26 01:07:02	    Page 78
Symbol Table



MSGIRQ				  Byte	 CODE:1EEA
MSGLOADED			  Byte	 CODE:1EB2
MSGMAC				  Byte	 CODE:1EF0
MSGPAR4				  Byte	 CODE:1ECA
MSGPAR8EPP			  Byte	 CODE:1ED0
MSGPAR8PS2			  Byte	 CODE:1EDA
MSGPORT				  Byte	 CODE:1EE4
MSGSERIAL			  Byte	 CODE:1EC2
MSGUMB				  Byte	 CODE:1F2B
MSGUNLOADED			  Byte	 CODE:2200
MSGWARN8250			  Byte	 CODE:1F45
MTU_SIZE			  Number 0240
MULTIPLEX_AH			  Number 00C0
MULTIPLEX_ID			  Number C0A0
MUX_GETINFO			  Near	 CODE:31C6
NAK_CHAR			  Number 0015
NICLONGNAMESTR			  Byte	 CODE:2EE4
NICSHORTNAMESTR			  Byte	 CODE:2EFD
NOBAUD				  Near	 CODE:37D6
NOBIDIR				  Near	 CODE:2E0F
NOBOARDNUM			  Near	 CODE:27C9
NOCONFIG			  Near	 CODE:27E9
NOCURRENTECB			  Near	 CODE:3223
NOESR				  Near	 CODE:36BC
NOFIFO				  Near	 CODE:2D7A
NOLPTFOUND			  Near	 CODE:2E1A
NOPACKET			  Near	 CODE:350B
NORXHANDLER			  Near	 CODE:3414
NOTESCAPED			  Near	 CODE:3285
NOTLASTHANDLER			  Near	 CODE:39BC
NOTLOADED			  Near	 CODE:39A4
NOTSPACE			  Near	 CODE:280E
NOUARTFOUND			  Near	 CODE:2DB6
NOUARTFOUNDDBG			  Near	 CODE:2D03
OLDHWINT_OFF			  Word	 CODE:0150
OLDHWINT_SEG			  Word	 CODE:0152
OLDINT2F_OFF			  Word	 CODE:014C
OLDINT2F_SEG			  Word	 CODE:014E
OPTDEBUG			  Byte	 CODE:26AA
OPTHELP				  Byte	 CODE:26A7
OPTUNLOAD			  Byte	 CODE:26A4
OURMULTIPLEX			  Near	 CODE:31BD
PAR4MODE			  Near	 CODE:2DF8
PARALLELCONFIGDONE		  Near	 CODE:2DFD
PARALLELISR			  Far	 CODE:323F
PARSECMDARG			  Near	 CODE:27A4
PARSECMDCHECKOPT		  Near	 CODE:273B
PARSECMDDONE			  Near	 CODE:2762
PARSECMDLOOP			  Near	 CODE:2721
PARSECMDNEXT			  Near	 CODE:275E
PARSECOMMANDLINE		  Near	 CODE:2714
PARSEDECDONE			  Near	 CODE:2A83
PARSEDECLOOP			  Near	 CODE:2A66
PARSEDECWORD			  Near	 CODE:2A60
PARSEHEXBYTE			  Near	 CODE:2A24
PARSEHEXBYTEDONE		  Near	 CODE:2A3E
PARSEHEXBYTELOOP		  Near	 CODE:2A29
Turbo Assembler	 Version 4.1	    03/03/26 01:07:02	    Page 79
Symbol Table



PARSEHEXDONE			  Near	 CODE:2A1E
PARSEHEXLOOP			  Near	 CODE:2A09
PARSEHEXWORD			  Near	 CODE:2A01
PARSELSLBAUD			  Near	 CODE:289B
PARSELSLCONFIG			  Near	 CODE:27F5
PARSELSLDECDONE			  Near	 CODE:2993
PARSELSLDECLOOP			  Near	 CODE:2976
PARSELSLDECVALUE		  Near	 CODE:2972
PARSELSLDONE			  Near	 CODE:28E9
PARSELSLFLOW			  Near	 CODE:28AF
PARSELSLHEXBYTE			  Near	 CODE:2999
PARSELSLHEXBYTEDONE		  Near	 CODE:29B1
PARSELSLHEXBYTELOOP		  Near	 CODE:299E
PARSELSLHEXDONE			  Near	 CODE:296D
PARSELSLHEXLOOP			  Near	 CODE:295C
PARSELSLHEXVALUE		  Near	 CODE:2956
PARSELSLINT			  Near	 CODE:2853
PARSELSLLOOP			  Near	 CODE:27FB
PARSELSLMODE			  Near	 CODE:285D
PARSELSLNODE			  Near	 CODE:28D2
PARSELSLNODELOOP		  Near	 CODE:28DB
PARSELSLPORT			  Near	 CODE:2849
PRINT8250			  Near	 CODE:37BC
PRINTDECIMAL			  Near	 CODE:3868
PRINTDETECTIONINFO		  Near	 CODE:37F1
PRINTDIGITS			  Near	 CODE:387B
PRINTFLOWRTS			  Near	 CODE:37CF
PRINTFLOWSTR			  Near	 CODE:37D2
PRINTHEXBYTE			  Near	 CODE:3844
PRINTHEXDIGIT			  Near	 CODE:3855
PRINTHEXWORD			  Near	 CODE:3839
PRINTINSTALLMESSAGE		  Near	 CODE:3741
PRINTMACADDRESS			  Near	 CODE:388A
PRINTMACDONE			  Near	 CODE:389F
PRINTMACLOOP			  Near	 CODE:388E
PRINTMEMMSG			  Near	 CODE:37E5
PRINTMODEEND			  Near	 CODE:382F
PRINTMODENAME			  Near	 CODE:382B
PRINTMODEPAR4			  Near	 CODE:3823
PRINTMODEPAR8			  Near	 CODE:3828
PRINTMODESERIAL			  Near	 CODE:381E
PRINTMODESTR			  Near	 CODE:376F
PRINTPAR4			  Near	 CODE:3767
PRINTPAR8EPP			  Near	 CODE:3762
PRINTSERIAL			  Near	 CODE:376C
PRINTUARTTYPE			  Near	 CODE:37BF
PRINTUMBMSG			  Near	 CODE:37E2
PROCESSBYTE			  Near	 CODE:328D
PROCESSDONE			  Near	 CODE:335B
PROCESSRECEIVEDBYTE		  Near	 CODE:3254
QUEUEDONE			  Near	 CODE:34BD
QUEUENOTEMPTY			  Near	 CODE:34A3
QUEUESTILLHASITEMS		  Near	 CODE:36A5
QUEUETRANSMITECB		  Near	 CODE:3470
REGISTERDONE			  Near	 CODE:3180
REGISTEROK			  Near	 CODE:3167
REGISTERWITHLSL			  Near	 CODE:2FC0
Turbo Assembler	 Version 4.1	    03/03/26 01:07:02	    Page 80
Symbol Table



RESIDENTEND			  Near	 CODE:3A0A
RESIDENTSIZE			  Number 390A
RESTOREBELOW8			  Near	 CODE:3986
RETRY_TIMEOUT			  Number 00C8
RXBUFFER			  Byte	 CODE:017E
RXBUFIDX			  Word	 CODE:0178
RXCRC				  Word	 CODE:017C
RXESCAPED			  Byte	 CODE:0177
RXFRAMELEN			  Word	 CODE:017A
RXHANDLEROFF			  Word	 CODE:0140
RXHANDLERSEG			  Word	 CODE:0142
RXSEQNUM			  Byte	 CODE:0175
RXSTATE				  Byte	 CODE:0176
RX_BUFFER_SIZE			  Number 1000
SENDACK				  Near	 CODE:341D
SENDBYTE			  Near	 CODE:3628
SENDBYTEWITHESCAPE		  Near	 CODE:35DB
SENDESCDONE			  Near	 CODE:3626
SENDNORMAL			  Near	 CODE:35F3
SENDPKTBUSY			  Near	 CODE:3734
SENDWAIT			  Near	 CODE:3630
SERIALEOI1			  Near	 CODE:3234
SERIALIRQ3			  Near	 CODE:2DAC
SERIALIRQ4			  Near	 CODE:2DA5
SERIALIRQSET			  Near	 CODE:2DB1
SERIALISR			  Far	 CODE:31D0
SERIALNOTRECEIVE		  Near	 CODE:3229
SETDEBUGFLAG			  Near	 CODE:2757
SETFLOWRTS			  Near	 CODE:28C2
SETFLOWXON			  Near	 CODE:28CA
SETHELPFLAG			  Near	 CODE:2749
SETMODEPAR4			  Near	 CODE:287F
SETMODEPAR8			  Near	 CODE:288D
SETMODESERIAL			  Near	 CODE:2877
SETUNLOADFLAG			  Near	 CODE:2750
SETVECTOR			  Near	 CODE:2EAF
SHOWHELP			  Near	 CODE:2708
SKIPDBGCALLLSL			  Near	 CODE:3138
SKIPDBGHOOKIRQ			  Near	 CODE:2B56
SKIPDBGHWINIT			  Near	 CODE:2B1E
SKIPDBGIRQOK			  Near	 CODE:2B6B
SKIPDBGLCR			  Near	 CODE:2C34
SKIPDBGLSLFAIL			  Near	 CODE:3163
SKIPDBGLSLOK			  Near	 CODE:317F
SKIPDBGOK1			  Near	 CODE:2C9C
SKIPDBGOK2			  Near	 CODE:2CFE
SKIPDBGREGLSL			  Near	 CODE:2B7B
SKIPDBGTEST1			  Near	 CODE:2C84
SKIPDBGTEST2			  Near	 CODE:2CE9
SKIPLSLEOLDONE			  Near	 CODE:29C8
SKIPLSLEOLLOOP			  Near	 CODE:29B6
SKIPLSLSPACES			  Near	 CODE:2805
SKIPLSLWORD			  Near	 CODE:29C9
SKIPLSLWORDDONE			  Near	 CODE:29DF
SKIPLSLWORDLOOP			  Near	 CODE:29C9
SKIPSPACES			  Near	 CODE:29E0
SKIPSPACESDONE			  Near	 CODE:29EA
Turbo Assembler	 Version 4.1	    03/03/26 01:07:02	    Page 81
Symbol Table



SKIPSPACESLOOP			  Near	 CODE:29E2
SKIPTOLSLEOL			  Near	 CODE:29B6
SKIPTOSPACE			  Near	 CODE:29EB
SKIPTOSPACEDONE			  Near	 CODE:29F5
SKIPTOSPACELOOP			  Near	 CODE:29ED
START				  Near	 CODE:0100
STARTDONE			  Near	 CODE:350B
STARTNEXTTRANSMIT		  Near	 CODE:34C0
STATECRCHI			  Near	 CODE:333B
STATECRCLO			  Near	 CODE:3330
STATEDATA			  Near	 CODE:330E
STATEIDLE			  Near	 CODE:32D9
STATELENHI			  Near	 CODE:32F6
STATELENLO			  Near	 CODE:32E9
STATESEQ			  Near	 CODE:32DC
STATE_CRC_HI			  Number 0006
STATE_CRC_LO			  Number 0005
STATE_DATA			  Number 0004
STATE_IDLE			  Number 0000
STATE_LEN_HI			  Number 0003
STATE_LEN_LO			  Number 0002
STATE_SEQ			  Number 0001
STATISTICS			  Struct CODE:011E STATS
TOUPPER				  Near	 CODE:29F6
TOUPPERDONE			  Near	 CODE:2A00
TRANSMITERROR			  Near	 CODE:34FC
TRANSMITFRAME			  Near	 CODE:358C
TRANSMITLOOP			  Near	 CODE:35AD
TRYBOARDNUM			  Near	 CODE:27B8
TXALREADYACTIVE			  Near	 CODE:3467
TXBUFFER			  Byte	 CODE:117E
TXCRC				  Word	 CODE:0173
TXCURRENTECB			  Dword	 CODE:0163
TXCURRENTOFF			  Word	 CODE:0169
TXCURRENTSEG			  Word	 CODE:0167
TXFRAGINDEX			  Word	 CODE:016B
TXFRAGOFFSET			  Word	 CODE:016D
TXFRAMEBUFFER			  Byte	 CODE:1BDE
TXPACKETSIZE			  Word	 CODE:0171
TXPENDING			  Byte	 CODE:0155
TXQUEUECOUNT			  Word	 CODE:0161
TXQUEUEHEAD			  Dword	 CODE:0159
TXQUEUETAIL			  Dword	 CODE:015D
TXRETRYCOUNT			  Byte	 CODE:0156
TXSEQNUM			  Byte	 CODE:0154
TXTIMEOUT			  Word	 CODE:0157
TXTOTALSENT			  Word	 CODE:016F
TX_BUFFER_SIZE			  Number 0800
UARTDETECTED			  Near	 CODE:2D19
UARTTYPEOK			  Near	 CODE:2D47
UART_FCR			  Number 0002
UART_IER			  Number 0001
UART_IIR			  Number 0002
UART_LCR			  Number 0003
UART_LSR			  Number 0005
UART_MCR			  Number 0004
UART_MSR			  Number 0006
Turbo Assembler	 Version 4.1	    03/03/26 01:07:02	    Page 82
Symbol Table



UART_RBR			  Number 0000
UART_SCR			  Number 0007
UART_THR			  Number 0000
UMBALLOCATED			  Byte	 CODE:2E1F
UMBSUCCESS			  Near	 CODE:2E57
UNESCAPEESC			  Near	 CODE:3279
UNESCAPESTART			  Near	 CODE:3275
UNESCAPEXOFF			  Near	 CODE:3281
UNESCAPEXON			  Near	 CODE:327D
UNLOADDRIVER			  Near	 CODE:38A1
UNLOAD_TSRBOARDNUM		  Word	 CODE:229E
UNLOAD_TSRIRQNUM		  Byte	 CODE:22A3
UNLOAD_TSRMODE			  Byte	 CODE:22A2
UNLOAD_TSRPORT			  Word	 CODE:22A0
UNLOAD_TSRSEG			  Word	 CODE:229C
UPDATECRC			  Near	 CODE:335F
UPDATETXCRC			  Near	 CODE:3655
VALIDATEFRAME			  Near	 CODE:33C3
WAITFORSEQ			  Near	 CODE:31F7
WAITTXREADY			  Near	 CODE:3429
WAITTXREADY2			  Near	 CODE:3437
XOFF_CHAR			  Number 0013
XON_CHAR			  Number 0011
ZEROEXTEND16TO32		  Near	 CODE:39DA

Structure Name			  Type	Offset

CONFIG
 MODE				  Byte	 0000
 PORT				  Word	 0001
 BAUDRATE			  Dword	 0003
 FLOWCTRL			  Byte	 0007
 MACADDR			  Byte	 0008
 IRQNUM				  Byte	 000E
 UARTTYPE			  Byte	 000F
 PARMODE			  Byte	 0010
 BOARDNUM			  Word	 0011
LSLINFOBLOCK
 LSLENTRYPOINT			  Dword	 0000
 LSLINFO1			  Word	 0004
 LSLINFO2			  Word	 0006
MLIDCONFIG
 SIGNATURE			  Byte	 0000
 MCONFIGTABLEMAJORVER		  Byte	 001A
 MCONFIGTABLEMINORVER		  Byte	 001B
 NODEADDRESS			  Byte	 001C
 MODEFLAGS			  Word	 0022
 BOARDNUMBER			  Word	 0024
 BOARDINSTANCE			  Word	 0026
 MAXDATASIZE			  Word	 0028
 BESTDATASIZE			  Word	 002A
 WORSTDATASIZE			  Word	 002C
 NICLONGNAME			  Dword	 002E
 NICSHORTNAME			  Dword	 0032
 FRAMEMEDIATYPE			  Dword	 0036
 RESERVED1			  Word	 003A
 FRAMETYPEID			  Word	 003C
Turbo Assembler	 Version 4.1	    03/03/26 01:07:02	    Page 83
Symbol Table



 TRANSPORTTIME			  Word	 003E
 SOURCEROUTEHANDLER		  Dword	 0040
 LOOKAHEADSIZE			  Word	 0044
 LINESPEED			  Word	 0046
 QUEUEDEPTH			  Word	 0048
 RESERVED2			  Byte	 004A
 DRIVERMAJORVER			  Byte	 0050
 DRIVERMINORVER			  Byte	 0051
 BUSMULTICASTFLAGS		  Word	 0052
 SENDRETRIES			  Word	 0054
 CONFIGTABLELINK		  Dword	 0056
 SHARINGFLAGS			  Word	 005A
 SLOTNUMBER			  Word	 005C
 IOADDR1			  Word	 005E
 IORANGE1			  Word	 0060
 IOADDR2			  Word	 0062
 IORANGE2			  Word	 0064
 MEMADDR1			  Dword	 0066
 MEMSIZE1			  Word	 006A
 MEMADDR2			  Dword	 006C
 MEMSIZE2			  Word	 0070
 IRQLINE1			  Byte	 0072
 IRQLINE2			  Byte	 0073
 DMALINE1			  Byte	 0074
 DMALINE2			  Byte	 0075
MLIDFUNCTABLE
 GETSTATISTICS			  Dword	 0000
 ADDMULTICAST			  Dword	 0004
 DELETEMULTICAST		  Dword	 0008
 MLIDSHUTDOWN			  Dword	 000C
 MLIDRESET			  Dword	 0010
 RESERVED			  Dword	 0014
MLIDINFOBLOCK
 MIBS_SENDENTRY			  Dword	 0000
 MIBS_CONTROLENTRY		  Dword	 0004
 MIBS_CONFIGTABLE		  Dword	 0008
STATS
 TXPACKETS			  Dword	 0000
 TXBYTES			  Dword	 0004
 RXPACKETS			  Dword	 0008
 RXBYTES			  Dword	 000C
 CRCERRORS			  Dword	 0010
 TIMEOUTS			  Dword	 0014
 RETRIES			  Dword	 0018
 OVERRUNS			  Dword	 001C

Groups & Segments		  Bit Size Align  Combine Class

CODE				  16  3A0A Para	  none
